   1              		.syntax unified
   2              		.cpu cortex-a8
   3              		.eabi_attribute 27, 3
   4              		.eabi_attribute 28, 1
   5              		.fpu neon
   6              		.eabi_attribute 23, 1
   7              		.eabi_attribute 24, 1
   8              		.eabi_attribute 25, 1
   9              		.eabi_attribute 26, 2
  10              		.eabi_attribute 30, 2
  11              		.eabi_attribute 34, 1
  12              		.eabi_attribute 18, 4
  13              		.thumb
  14              		.file	"main.c"
  15              		.text
  16              	.Ltext0:
  17              		.cfi_sections	.debug_frame
  18              		.align	2
  19              		.global	init_data
  20              		.thumb
  21              		.thumb_func
  23              	init_data:
  24              	.LFB1912:
  25              		.file 1 "main.c"
   1:main.c        **** /*----------------------------------------------------------------------------
   2:main.c        ****  *----------------------------------------------------------------------------*/
   3:main.c        **** #include <math.h>
   4:main.c        **** #include <stdio.h>
   5:main.c        **** #include <stdint.h>
   6:main.c        **** #include <stdlib.h>
   7:main.c        **** #include <string.h>
   8:main.c        **** #include <time.h>
   9:main.c        **** #include <arm_neon.h>
  10:main.c        **** #include <arm_acle.h>
  11:main.c        **** 
  12:main.c        **** #define DEBUG (0)
  13:main.c        **** #define USE_SIMD (1)
  14:main.c        **** 
  15:main.c        **** #define N_TESTS (1000)
  16:main.c        **** 
  17:main.c        **** #define N_POINTS (10000)
  18:main.c        **** /*----------------------------------------------------------------------------
  19:main.c        ****   MAIN function
  20:main.c        ****  *----------------------------------------------------------------------------*/
  21:main.c        **** float x[N_POINTS];
  22:main.c        **** 
  23:main.c        **** void init_data(void) {
  26              		.loc 1 23 0
  27              		.cfi_startproc
  28              		@ args = 0, pretend = 0, frame = 0
  29              		@ frame_needed = 0, uses_anonymous_args = 0
  30              	.LVL0:
  31 0000 38B5     		push	{r3, r4, r5, lr}
  32              		.cfi_def_cfa_offset 16
  33              		.cfi_offset 3, -16
  34              		.cfi_offset 4, -12
  35              		.cfi_offset 5, -8
  36              		.cfi_offset 14, -4
  37 0002 40F20004 		movw	r4, #:lower16:x
  38 0006 2DED028B 		fstmfdd	sp!, {d8}
  39              		.cfi_def_cfa_offset 24
  40              		.cfi_offset 80, -24
  41              		.cfi_offset 81, -20
  42 000a C0F20004 		movt	r4, #:upper16:x
  43 000e 0B4D     		ldr	r5, .L6
  44              	.LVL1:
  45              	.L2:
  24:main.c        ****   int i;
  25:main.c        **** 
  26:main.c        ****   for (i=0; i<N_POINTS; i++) {
  27:main.c        ****     x[i] = ((float) rand())/rand();
  46              		.loc 1 27 0 discriminator 3
  47 0010 FFF7FEFF 		bl	rand
  48              	.LVL2:
  49 0014 08EE100A 		fmsr	s16, r0	@ int
  50 0018 FFF7FEFF 		bl	rand
  51              	.LVL3:
  52 001c B8EEC88A 		fsitos	s16, s16
  53 0020 07EE900A 		fmsr	s15, r0	@ int
  54 0024 F8EEE77A 		fsitos	s15, s15
  55 0028 88EE278A 		fdivs	s16, s16, s15
  56 002c A4EC018A 		fstmias	r4!, {s16}
  26:main.c        ****     x[i] = ((float) rand())/rand();
  57              		.loc 1 26 0 discriminator 3
  58 0030 AC42     		cmp	r4, r5
  59 0032 EDD1     		bne	.L2
  28:main.c        ****   }
  29:main.c        **** }
  60              		.loc 1 29 0
  61 0034 BDEC028B 		fldmfdd	sp!, {d8}
  62              		.cfi_restore 80
  63              		.cfi_restore 81
  64              		.cfi_def_cfa_offset 16
  65 0038 38BD     		pop	{r3, r4, r5, pc}
  66              	.L7:
  67 003a 00BF     		.align	2
  68              	.L6:
  69 003c 409C0000 		.word	x+40000
  70              		.cfi_endproc
  71              	.LFE1912:
  73              		.align	2
  74              		.global	print_float32x4
  75              		.thumb
  76              		.thumb_func
  78              	print_float32x4:
  79              	.LFB1913:
  30:main.c        **** 
  31:main.c        **** void print_float32x4(float32x4_t v4) {
  80              		.loc 1 31 0
  81              		.cfi_startproc
  82              		@ args = 0, pretend = 0, frame = 16
  83              		@ frame_needed = 0, uses_anonymous_args = 0
  84              	.LVL4:
  85              	.LBB61:
  86              	.LBB62:
  87              		.file 2 "/usr/lib/gcc/arm-linux-gnueabihf/4.9/include/arm_neon.h"
   1:/usr/lib/gcc/arm-linux-gnueabihf/4.9/include/arm_neon.h **** /* ARM NEON intrinsics include file.
   2:/usr/lib/gcc/arm-linux-gnueabihf/4.9/include/arm_neon.h **** 
   3:/usr/lib/gcc/arm-linux-gnueabihf/4.9/include/arm_neon.h ****    Copyright (C) 2006-2014 Free Software Foundation, Inc.
   4:/usr/lib/gcc/arm-linux-gnueabihf/4.9/include/arm_neon.h ****    Contributed by CodeSourcery.
   5:/usr/lib/gcc/arm-linux-gnueabihf/4.9/include/arm_neon.h **** 
   6:/usr/lib/gcc/arm-linux-gnueabihf/4.9/include/arm_neon.h ****    This file is part of GCC.
   7:/usr/lib/gcc/arm-linux-gnueabihf/4.9/include/arm_neon.h **** 
   8:/usr/lib/gcc/arm-linux-gnueabihf/4.9/include/arm_neon.h ****    GCC is free software; you can redistribute it and/or modify it
   9:/usr/lib/gcc/arm-linux-gnueabihf/4.9/include/arm_neon.h ****    under the terms of the GNU General Public License as published
  10:/usr/lib/gcc/arm-linux-gnueabihf/4.9/include/arm_neon.h ****    by the Free Software Foundation; either version 3, or (at your
  11:/usr/lib/gcc/arm-linux-gnueabihf/4.9/include/arm_neon.h ****    option) any later version.
  12:/usr/lib/gcc/arm-linux-gnueabihf/4.9/include/arm_neon.h **** 
  13:/usr/lib/gcc/arm-linux-gnueabihf/4.9/include/arm_neon.h ****    GCC is distributed in the hope that it will be useful, but WITHOUT
  14:/usr/lib/gcc/arm-linux-gnueabihf/4.9/include/arm_neon.h ****    ANY WARRANTY; without even the implied warranty of MERCHANTABILITY
  15:/usr/lib/gcc/arm-linux-gnueabihf/4.9/include/arm_neon.h ****    or FITNESS FOR A PARTICULAR PURPOSE.  See the GNU General Public
  16:/usr/lib/gcc/arm-linux-gnueabihf/4.9/include/arm_neon.h ****    License for more details.
  17:/usr/lib/gcc/arm-linux-gnueabihf/4.9/include/arm_neon.h **** 
  18:/usr/lib/gcc/arm-linux-gnueabihf/4.9/include/arm_neon.h ****    Under Section 7 of GPL version 3, you are granted additional
  19:/usr/lib/gcc/arm-linux-gnueabihf/4.9/include/arm_neon.h ****    permissions described in the GCC Runtime Library Exception, version
  20:/usr/lib/gcc/arm-linux-gnueabihf/4.9/include/arm_neon.h ****    3.1, as published by the Free Software Foundation.
  21:/usr/lib/gcc/arm-linux-gnueabihf/4.9/include/arm_neon.h **** 
  22:/usr/lib/gcc/arm-linux-gnueabihf/4.9/include/arm_neon.h ****    You should have received a copy of the GNU General Public License and
  23:/usr/lib/gcc/arm-linux-gnueabihf/4.9/include/arm_neon.h ****    a copy of the GCC Runtime Library Exception along with this program;
  24:/usr/lib/gcc/arm-linux-gnueabihf/4.9/include/arm_neon.h ****    see the files COPYING3 and COPYING.RUNTIME respectively.  If not, see
  25:/usr/lib/gcc/arm-linux-gnueabihf/4.9/include/arm_neon.h ****    <http://www.gnu.org/licenses/>.  */
  26:/usr/lib/gcc/arm-linux-gnueabihf/4.9/include/arm_neon.h **** 
  27:/usr/lib/gcc/arm-linux-gnueabihf/4.9/include/arm_neon.h **** #ifndef _GCC_ARM_NEON_H
  28:/usr/lib/gcc/arm-linux-gnueabihf/4.9/include/arm_neon.h **** #define _GCC_ARM_NEON_H 1
  29:/usr/lib/gcc/arm-linux-gnueabihf/4.9/include/arm_neon.h **** 
  30:/usr/lib/gcc/arm-linux-gnueabihf/4.9/include/arm_neon.h **** #ifndef __ARM_NEON__
  31:/usr/lib/gcc/arm-linux-gnueabihf/4.9/include/arm_neon.h **** #error You must enable NEON instructions (e.g. -mfloat-abi=softfp -mfpu=neon) to use arm_neon.h
  32:/usr/lib/gcc/arm-linux-gnueabihf/4.9/include/arm_neon.h **** #else
  33:/usr/lib/gcc/arm-linux-gnueabihf/4.9/include/arm_neon.h **** 
  34:/usr/lib/gcc/arm-linux-gnueabihf/4.9/include/arm_neon.h **** #ifdef __cplusplus
  35:/usr/lib/gcc/arm-linux-gnueabihf/4.9/include/arm_neon.h **** extern "C" {
  36:/usr/lib/gcc/arm-linux-gnueabihf/4.9/include/arm_neon.h **** #endif
  37:/usr/lib/gcc/arm-linux-gnueabihf/4.9/include/arm_neon.h **** 
  38:/usr/lib/gcc/arm-linux-gnueabihf/4.9/include/arm_neon.h **** #include <stdint.h>
  39:/usr/lib/gcc/arm-linux-gnueabihf/4.9/include/arm_neon.h **** 
  40:/usr/lib/gcc/arm-linux-gnueabihf/4.9/include/arm_neon.h **** typedef __builtin_neon_qi int8x8_t	__attribute__ ((__vector_size__ (8)));
  41:/usr/lib/gcc/arm-linux-gnueabihf/4.9/include/arm_neon.h **** typedef __builtin_neon_hi int16x4_t	__attribute__ ((__vector_size__ (8)));
  42:/usr/lib/gcc/arm-linux-gnueabihf/4.9/include/arm_neon.h **** typedef __builtin_neon_si int32x2_t	__attribute__ ((__vector_size__ (8)));
  43:/usr/lib/gcc/arm-linux-gnueabihf/4.9/include/arm_neon.h **** typedef __builtin_neon_di int64x1_t;
  44:/usr/lib/gcc/arm-linux-gnueabihf/4.9/include/arm_neon.h **** typedef __builtin_neon_hf float16x4_t	__attribute__ ((__vector_size__ (8)));
  45:/usr/lib/gcc/arm-linux-gnueabihf/4.9/include/arm_neon.h **** typedef __builtin_neon_sf float32x2_t	__attribute__ ((__vector_size__ (8)));
  46:/usr/lib/gcc/arm-linux-gnueabihf/4.9/include/arm_neon.h **** typedef __builtin_neon_poly8 poly8x8_t	__attribute__ ((__vector_size__ (8)));
  47:/usr/lib/gcc/arm-linux-gnueabihf/4.9/include/arm_neon.h **** typedef __builtin_neon_poly16 poly16x4_t	__attribute__ ((__vector_size__ (8)));
  48:/usr/lib/gcc/arm-linux-gnueabihf/4.9/include/arm_neon.h **** #ifdef __ARM_FEATURE_CRYPTO
  49:/usr/lib/gcc/arm-linux-gnueabihf/4.9/include/arm_neon.h **** typedef __builtin_neon_poly64 poly64x1_t;
  50:/usr/lib/gcc/arm-linux-gnueabihf/4.9/include/arm_neon.h **** #endif
  51:/usr/lib/gcc/arm-linux-gnueabihf/4.9/include/arm_neon.h **** typedef __builtin_neon_uqi uint8x8_t	__attribute__ ((__vector_size__ (8)));
  52:/usr/lib/gcc/arm-linux-gnueabihf/4.9/include/arm_neon.h **** typedef __builtin_neon_uhi uint16x4_t	__attribute__ ((__vector_size__ (8)));
  53:/usr/lib/gcc/arm-linux-gnueabihf/4.9/include/arm_neon.h **** typedef __builtin_neon_usi uint32x2_t	__attribute__ ((__vector_size__ (8)));
  54:/usr/lib/gcc/arm-linux-gnueabihf/4.9/include/arm_neon.h **** typedef __builtin_neon_udi uint64x1_t;
  55:/usr/lib/gcc/arm-linux-gnueabihf/4.9/include/arm_neon.h **** typedef __builtin_neon_qi int8x16_t	__attribute__ ((__vector_size__ (16)));
  56:/usr/lib/gcc/arm-linux-gnueabihf/4.9/include/arm_neon.h **** typedef __builtin_neon_hi int16x8_t	__attribute__ ((__vector_size__ (16)));
  57:/usr/lib/gcc/arm-linux-gnueabihf/4.9/include/arm_neon.h **** typedef __builtin_neon_si int32x4_t	__attribute__ ((__vector_size__ (16)));
  58:/usr/lib/gcc/arm-linux-gnueabihf/4.9/include/arm_neon.h **** typedef __builtin_neon_di int64x2_t	__attribute__ ((__vector_size__ (16)));
  59:/usr/lib/gcc/arm-linux-gnueabihf/4.9/include/arm_neon.h **** typedef __builtin_neon_sf float32x4_t	__attribute__ ((__vector_size__ (16)));
  60:/usr/lib/gcc/arm-linux-gnueabihf/4.9/include/arm_neon.h **** typedef __builtin_neon_poly8 poly8x16_t	__attribute__ ((__vector_size__ (16)));
  61:/usr/lib/gcc/arm-linux-gnueabihf/4.9/include/arm_neon.h **** typedef __builtin_neon_poly16 poly16x8_t	__attribute__ ((__vector_size__ (16)));
  62:/usr/lib/gcc/arm-linux-gnueabihf/4.9/include/arm_neon.h **** #ifdef __ARM_FEATURE_CRYPTO
  63:/usr/lib/gcc/arm-linux-gnueabihf/4.9/include/arm_neon.h **** typedef __builtin_neon_poly64 poly64x2_t	__attribute__ ((__vector_size__ (16)));
  64:/usr/lib/gcc/arm-linux-gnueabihf/4.9/include/arm_neon.h **** #endif
  65:/usr/lib/gcc/arm-linux-gnueabihf/4.9/include/arm_neon.h **** typedef __builtin_neon_uqi uint8x16_t	__attribute__ ((__vector_size__ (16)));
  66:/usr/lib/gcc/arm-linux-gnueabihf/4.9/include/arm_neon.h **** typedef __builtin_neon_uhi uint16x8_t	__attribute__ ((__vector_size__ (16)));
  67:/usr/lib/gcc/arm-linux-gnueabihf/4.9/include/arm_neon.h **** typedef __builtin_neon_usi uint32x4_t	__attribute__ ((__vector_size__ (16)));
  68:/usr/lib/gcc/arm-linux-gnueabihf/4.9/include/arm_neon.h **** typedef __builtin_neon_udi uint64x2_t	__attribute__ ((__vector_size__ (16)));
  69:/usr/lib/gcc/arm-linux-gnueabihf/4.9/include/arm_neon.h **** 
  70:/usr/lib/gcc/arm-linux-gnueabihf/4.9/include/arm_neon.h **** typedef float float32_t;
  71:/usr/lib/gcc/arm-linux-gnueabihf/4.9/include/arm_neon.h **** typedef __builtin_neon_poly8 poly8_t;
  72:/usr/lib/gcc/arm-linux-gnueabihf/4.9/include/arm_neon.h **** typedef __builtin_neon_poly16 poly16_t;
  73:/usr/lib/gcc/arm-linux-gnueabihf/4.9/include/arm_neon.h **** #ifdef __ARM_FEATURE_CRYPTO
  74:/usr/lib/gcc/arm-linux-gnueabihf/4.9/include/arm_neon.h **** typedef __builtin_neon_poly64 poly64_t;
  75:/usr/lib/gcc/arm-linux-gnueabihf/4.9/include/arm_neon.h **** typedef __builtin_neon_poly128 poly128_t;
  76:/usr/lib/gcc/arm-linux-gnueabihf/4.9/include/arm_neon.h **** #endif
  77:/usr/lib/gcc/arm-linux-gnueabihf/4.9/include/arm_neon.h **** 
  78:/usr/lib/gcc/arm-linux-gnueabihf/4.9/include/arm_neon.h **** typedef struct int8x8x2_t
  79:/usr/lib/gcc/arm-linux-gnueabihf/4.9/include/arm_neon.h **** {
  80:/usr/lib/gcc/arm-linux-gnueabihf/4.9/include/arm_neon.h ****   int8x8_t val[2];
  81:/usr/lib/gcc/arm-linux-gnueabihf/4.9/include/arm_neon.h **** } int8x8x2_t;
  82:/usr/lib/gcc/arm-linux-gnueabihf/4.9/include/arm_neon.h **** 
  83:/usr/lib/gcc/arm-linux-gnueabihf/4.9/include/arm_neon.h **** typedef struct int8x16x2_t
  84:/usr/lib/gcc/arm-linux-gnueabihf/4.9/include/arm_neon.h **** {
  85:/usr/lib/gcc/arm-linux-gnueabihf/4.9/include/arm_neon.h ****   int8x16_t val[2];
  86:/usr/lib/gcc/arm-linux-gnueabihf/4.9/include/arm_neon.h **** } int8x16x2_t;
  87:/usr/lib/gcc/arm-linux-gnueabihf/4.9/include/arm_neon.h **** 
  88:/usr/lib/gcc/arm-linux-gnueabihf/4.9/include/arm_neon.h **** typedef struct int16x4x2_t
  89:/usr/lib/gcc/arm-linux-gnueabihf/4.9/include/arm_neon.h **** {
  90:/usr/lib/gcc/arm-linux-gnueabihf/4.9/include/arm_neon.h ****   int16x4_t val[2];
  91:/usr/lib/gcc/arm-linux-gnueabihf/4.9/include/arm_neon.h **** } int16x4x2_t;
  92:/usr/lib/gcc/arm-linux-gnueabihf/4.9/include/arm_neon.h **** 
  93:/usr/lib/gcc/arm-linux-gnueabihf/4.9/include/arm_neon.h **** typedef struct int16x8x2_t
  94:/usr/lib/gcc/arm-linux-gnueabihf/4.9/include/arm_neon.h **** {
  95:/usr/lib/gcc/arm-linux-gnueabihf/4.9/include/arm_neon.h ****   int16x8_t val[2];
  96:/usr/lib/gcc/arm-linux-gnueabihf/4.9/include/arm_neon.h **** } int16x8x2_t;
  97:/usr/lib/gcc/arm-linux-gnueabihf/4.9/include/arm_neon.h **** 
  98:/usr/lib/gcc/arm-linux-gnueabihf/4.9/include/arm_neon.h **** typedef struct int32x2x2_t
  99:/usr/lib/gcc/arm-linux-gnueabihf/4.9/include/arm_neon.h **** {
 100:/usr/lib/gcc/arm-linux-gnueabihf/4.9/include/arm_neon.h ****   int32x2_t val[2];
 101:/usr/lib/gcc/arm-linux-gnueabihf/4.9/include/arm_neon.h **** } int32x2x2_t;
 102:/usr/lib/gcc/arm-linux-gnueabihf/4.9/include/arm_neon.h **** 
 103:/usr/lib/gcc/arm-linux-gnueabihf/4.9/include/arm_neon.h **** typedef struct int32x4x2_t
 104:/usr/lib/gcc/arm-linux-gnueabihf/4.9/include/arm_neon.h **** {
 105:/usr/lib/gcc/arm-linux-gnueabihf/4.9/include/arm_neon.h ****   int32x4_t val[2];
 106:/usr/lib/gcc/arm-linux-gnueabihf/4.9/include/arm_neon.h **** } int32x4x2_t;
 107:/usr/lib/gcc/arm-linux-gnueabihf/4.9/include/arm_neon.h **** 
 108:/usr/lib/gcc/arm-linux-gnueabihf/4.9/include/arm_neon.h **** typedef struct int64x1x2_t
 109:/usr/lib/gcc/arm-linux-gnueabihf/4.9/include/arm_neon.h **** {
 110:/usr/lib/gcc/arm-linux-gnueabihf/4.9/include/arm_neon.h ****   int64x1_t val[2];
 111:/usr/lib/gcc/arm-linux-gnueabihf/4.9/include/arm_neon.h **** } int64x1x2_t;
 112:/usr/lib/gcc/arm-linux-gnueabihf/4.9/include/arm_neon.h **** 
 113:/usr/lib/gcc/arm-linux-gnueabihf/4.9/include/arm_neon.h **** typedef struct int64x2x2_t
 114:/usr/lib/gcc/arm-linux-gnueabihf/4.9/include/arm_neon.h **** {
 115:/usr/lib/gcc/arm-linux-gnueabihf/4.9/include/arm_neon.h ****   int64x2_t val[2];
 116:/usr/lib/gcc/arm-linux-gnueabihf/4.9/include/arm_neon.h **** } int64x2x2_t;
 117:/usr/lib/gcc/arm-linux-gnueabihf/4.9/include/arm_neon.h **** 
 118:/usr/lib/gcc/arm-linux-gnueabihf/4.9/include/arm_neon.h **** typedef struct uint8x8x2_t
 119:/usr/lib/gcc/arm-linux-gnueabihf/4.9/include/arm_neon.h **** {
 120:/usr/lib/gcc/arm-linux-gnueabihf/4.9/include/arm_neon.h ****   uint8x8_t val[2];
 121:/usr/lib/gcc/arm-linux-gnueabihf/4.9/include/arm_neon.h **** } uint8x8x2_t;
 122:/usr/lib/gcc/arm-linux-gnueabihf/4.9/include/arm_neon.h **** 
 123:/usr/lib/gcc/arm-linux-gnueabihf/4.9/include/arm_neon.h **** typedef struct uint8x16x2_t
 124:/usr/lib/gcc/arm-linux-gnueabihf/4.9/include/arm_neon.h **** {
 125:/usr/lib/gcc/arm-linux-gnueabihf/4.9/include/arm_neon.h ****   uint8x16_t val[2];
 126:/usr/lib/gcc/arm-linux-gnueabihf/4.9/include/arm_neon.h **** } uint8x16x2_t;
 127:/usr/lib/gcc/arm-linux-gnueabihf/4.9/include/arm_neon.h **** 
 128:/usr/lib/gcc/arm-linux-gnueabihf/4.9/include/arm_neon.h **** typedef struct uint16x4x2_t
 129:/usr/lib/gcc/arm-linux-gnueabihf/4.9/include/arm_neon.h **** {
 130:/usr/lib/gcc/arm-linux-gnueabihf/4.9/include/arm_neon.h ****   uint16x4_t val[2];
 131:/usr/lib/gcc/arm-linux-gnueabihf/4.9/include/arm_neon.h **** } uint16x4x2_t;
 132:/usr/lib/gcc/arm-linux-gnueabihf/4.9/include/arm_neon.h **** 
 133:/usr/lib/gcc/arm-linux-gnueabihf/4.9/include/arm_neon.h **** typedef struct uint16x8x2_t
 134:/usr/lib/gcc/arm-linux-gnueabihf/4.9/include/arm_neon.h **** {
 135:/usr/lib/gcc/arm-linux-gnueabihf/4.9/include/arm_neon.h ****   uint16x8_t val[2];
 136:/usr/lib/gcc/arm-linux-gnueabihf/4.9/include/arm_neon.h **** } uint16x8x2_t;
 137:/usr/lib/gcc/arm-linux-gnueabihf/4.9/include/arm_neon.h **** 
 138:/usr/lib/gcc/arm-linux-gnueabihf/4.9/include/arm_neon.h **** typedef struct uint32x2x2_t
 139:/usr/lib/gcc/arm-linux-gnueabihf/4.9/include/arm_neon.h **** {
 140:/usr/lib/gcc/arm-linux-gnueabihf/4.9/include/arm_neon.h ****   uint32x2_t val[2];
 141:/usr/lib/gcc/arm-linux-gnueabihf/4.9/include/arm_neon.h **** } uint32x2x2_t;
 142:/usr/lib/gcc/arm-linux-gnueabihf/4.9/include/arm_neon.h **** 
 143:/usr/lib/gcc/arm-linux-gnueabihf/4.9/include/arm_neon.h **** typedef struct uint32x4x2_t
 144:/usr/lib/gcc/arm-linux-gnueabihf/4.9/include/arm_neon.h **** {
 145:/usr/lib/gcc/arm-linux-gnueabihf/4.9/include/arm_neon.h ****   uint32x4_t val[2];
 146:/usr/lib/gcc/arm-linux-gnueabihf/4.9/include/arm_neon.h **** } uint32x4x2_t;
 147:/usr/lib/gcc/arm-linux-gnueabihf/4.9/include/arm_neon.h **** 
 148:/usr/lib/gcc/arm-linux-gnueabihf/4.9/include/arm_neon.h **** typedef struct uint64x1x2_t
 149:/usr/lib/gcc/arm-linux-gnueabihf/4.9/include/arm_neon.h **** {
 150:/usr/lib/gcc/arm-linux-gnueabihf/4.9/include/arm_neon.h ****   uint64x1_t val[2];
 151:/usr/lib/gcc/arm-linux-gnueabihf/4.9/include/arm_neon.h **** } uint64x1x2_t;
 152:/usr/lib/gcc/arm-linux-gnueabihf/4.9/include/arm_neon.h **** 
 153:/usr/lib/gcc/arm-linux-gnueabihf/4.9/include/arm_neon.h **** typedef struct uint64x2x2_t
 154:/usr/lib/gcc/arm-linux-gnueabihf/4.9/include/arm_neon.h **** {
 155:/usr/lib/gcc/arm-linux-gnueabihf/4.9/include/arm_neon.h ****   uint64x2_t val[2];
 156:/usr/lib/gcc/arm-linux-gnueabihf/4.9/include/arm_neon.h **** } uint64x2x2_t;
 157:/usr/lib/gcc/arm-linux-gnueabihf/4.9/include/arm_neon.h **** 
 158:/usr/lib/gcc/arm-linux-gnueabihf/4.9/include/arm_neon.h **** typedef struct float32x2x2_t
 159:/usr/lib/gcc/arm-linux-gnueabihf/4.9/include/arm_neon.h **** {
 160:/usr/lib/gcc/arm-linux-gnueabihf/4.9/include/arm_neon.h ****   float32x2_t val[2];
 161:/usr/lib/gcc/arm-linux-gnueabihf/4.9/include/arm_neon.h **** } float32x2x2_t;
 162:/usr/lib/gcc/arm-linux-gnueabihf/4.9/include/arm_neon.h **** 
 163:/usr/lib/gcc/arm-linux-gnueabihf/4.9/include/arm_neon.h **** typedef struct float32x4x2_t
 164:/usr/lib/gcc/arm-linux-gnueabihf/4.9/include/arm_neon.h **** {
 165:/usr/lib/gcc/arm-linux-gnueabihf/4.9/include/arm_neon.h ****   float32x4_t val[2];
 166:/usr/lib/gcc/arm-linux-gnueabihf/4.9/include/arm_neon.h **** } float32x4x2_t;
 167:/usr/lib/gcc/arm-linux-gnueabihf/4.9/include/arm_neon.h **** 
 168:/usr/lib/gcc/arm-linux-gnueabihf/4.9/include/arm_neon.h **** typedef struct poly8x8x2_t
 169:/usr/lib/gcc/arm-linux-gnueabihf/4.9/include/arm_neon.h **** {
 170:/usr/lib/gcc/arm-linux-gnueabihf/4.9/include/arm_neon.h ****   poly8x8_t val[2];
 171:/usr/lib/gcc/arm-linux-gnueabihf/4.9/include/arm_neon.h **** } poly8x8x2_t;
 172:/usr/lib/gcc/arm-linux-gnueabihf/4.9/include/arm_neon.h **** 
 173:/usr/lib/gcc/arm-linux-gnueabihf/4.9/include/arm_neon.h **** typedef struct poly8x16x2_t
 174:/usr/lib/gcc/arm-linux-gnueabihf/4.9/include/arm_neon.h **** {
 175:/usr/lib/gcc/arm-linux-gnueabihf/4.9/include/arm_neon.h ****   poly8x16_t val[2];
 176:/usr/lib/gcc/arm-linux-gnueabihf/4.9/include/arm_neon.h **** } poly8x16x2_t;
 177:/usr/lib/gcc/arm-linux-gnueabihf/4.9/include/arm_neon.h **** 
 178:/usr/lib/gcc/arm-linux-gnueabihf/4.9/include/arm_neon.h **** typedef struct poly16x4x2_t
 179:/usr/lib/gcc/arm-linux-gnueabihf/4.9/include/arm_neon.h **** {
 180:/usr/lib/gcc/arm-linux-gnueabihf/4.9/include/arm_neon.h ****   poly16x4_t val[2];
 181:/usr/lib/gcc/arm-linux-gnueabihf/4.9/include/arm_neon.h **** } poly16x4x2_t;
 182:/usr/lib/gcc/arm-linux-gnueabihf/4.9/include/arm_neon.h **** 
 183:/usr/lib/gcc/arm-linux-gnueabihf/4.9/include/arm_neon.h **** typedef struct poly16x8x2_t
 184:/usr/lib/gcc/arm-linux-gnueabihf/4.9/include/arm_neon.h **** {
 185:/usr/lib/gcc/arm-linux-gnueabihf/4.9/include/arm_neon.h ****   poly16x8_t val[2];
 186:/usr/lib/gcc/arm-linux-gnueabihf/4.9/include/arm_neon.h **** } poly16x8x2_t;
 187:/usr/lib/gcc/arm-linux-gnueabihf/4.9/include/arm_neon.h **** 
 188:/usr/lib/gcc/arm-linux-gnueabihf/4.9/include/arm_neon.h **** #ifdef __ARM_FEATURE_CRYPTO
 189:/usr/lib/gcc/arm-linux-gnueabihf/4.9/include/arm_neon.h **** typedef struct poly64x1x2_t
 190:/usr/lib/gcc/arm-linux-gnueabihf/4.9/include/arm_neon.h **** {
 191:/usr/lib/gcc/arm-linux-gnueabihf/4.9/include/arm_neon.h ****   poly64x1_t val[2];
 192:/usr/lib/gcc/arm-linux-gnueabihf/4.9/include/arm_neon.h **** } poly64x1x2_t;
 193:/usr/lib/gcc/arm-linux-gnueabihf/4.9/include/arm_neon.h **** #endif
 194:/usr/lib/gcc/arm-linux-gnueabihf/4.9/include/arm_neon.h **** 
 195:/usr/lib/gcc/arm-linux-gnueabihf/4.9/include/arm_neon.h **** 
 196:/usr/lib/gcc/arm-linux-gnueabihf/4.9/include/arm_neon.h **** #ifdef __ARM_FEATURE_CRYPTO
 197:/usr/lib/gcc/arm-linux-gnueabihf/4.9/include/arm_neon.h **** typedef struct poly64x2x2_t
 198:/usr/lib/gcc/arm-linux-gnueabihf/4.9/include/arm_neon.h **** {
 199:/usr/lib/gcc/arm-linux-gnueabihf/4.9/include/arm_neon.h ****   poly64x2_t val[2];
 200:/usr/lib/gcc/arm-linux-gnueabihf/4.9/include/arm_neon.h **** } poly64x2x2_t;
 201:/usr/lib/gcc/arm-linux-gnueabihf/4.9/include/arm_neon.h **** #endif
 202:/usr/lib/gcc/arm-linux-gnueabihf/4.9/include/arm_neon.h **** 
 203:/usr/lib/gcc/arm-linux-gnueabihf/4.9/include/arm_neon.h **** 
 204:/usr/lib/gcc/arm-linux-gnueabihf/4.9/include/arm_neon.h **** typedef struct int8x8x3_t
 205:/usr/lib/gcc/arm-linux-gnueabihf/4.9/include/arm_neon.h **** {
 206:/usr/lib/gcc/arm-linux-gnueabihf/4.9/include/arm_neon.h ****   int8x8_t val[3];
 207:/usr/lib/gcc/arm-linux-gnueabihf/4.9/include/arm_neon.h **** } int8x8x3_t;
 208:/usr/lib/gcc/arm-linux-gnueabihf/4.9/include/arm_neon.h **** 
 209:/usr/lib/gcc/arm-linux-gnueabihf/4.9/include/arm_neon.h **** typedef struct int8x16x3_t
 210:/usr/lib/gcc/arm-linux-gnueabihf/4.9/include/arm_neon.h **** {
 211:/usr/lib/gcc/arm-linux-gnueabihf/4.9/include/arm_neon.h ****   int8x16_t val[3];
 212:/usr/lib/gcc/arm-linux-gnueabihf/4.9/include/arm_neon.h **** } int8x16x3_t;
 213:/usr/lib/gcc/arm-linux-gnueabihf/4.9/include/arm_neon.h **** 
 214:/usr/lib/gcc/arm-linux-gnueabihf/4.9/include/arm_neon.h **** typedef struct int16x4x3_t
 215:/usr/lib/gcc/arm-linux-gnueabihf/4.9/include/arm_neon.h **** {
 216:/usr/lib/gcc/arm-linux-gnueabihf/4.9/include/arm_neon.h ****   int16x4_t val[3];
 217:/usr/lib/gcc/arm-linux-gnueabihf/4.9/include/arm_neon.h **** } int16x4x3_t;
 218:/usr/lib/gcc/arm-linux-gnueabihf/4.9/include/arm_neon.h **** 
 219:/usr/lib/gcc/arm-linux-gnueabihf/4.9/include/arm_neon.h **** typedef struct int16x8x3_t
 220:/usr/lib/gcc/arm-linux-gnueabihf/4.9/include/arm_neon.h **** {
 221:/usr/lib/gcc/arm-linux-gnueabihf/4.9/include/arm_neon.h ****   int16x8_t val[3];
 222:/usr/lib/gcc/arm-linux-gnueabihf/4.9/include/arm_neon.h **** } int16x8x3_t;
 223:/usr/lib/gcc/arm-linux-gnueabihf/4.9/include/arm_neon.h **** 
 224:/usr/lib/gcc/arm-linux-gnueabihf/4.9/include/arm_neon.h **** typedef struct int32x2x3_t
 225:/usr/lib/gcc/arm-linux-gnueabihf/4.9/include/arm_neon.h **** {
 226:/usr/lib/gcc/arm-linux-gnueabihf/4.9/include/arm_neon.h ****   int32x2_t val[3];
 227:/usr/lib/gcc/arm-linux-gnueabihf/4.9/include/arm_neon.h **** } int32x2x3_t;
 228:/usr/lib/gcc/arm-linux-gnueabihf/4.9/include/arm_neon.h **** 
 229:/usr/lib/gcc/arm-linux-gnueabihf/4.9/include/arm_neon.h **** typedef struct int32x4x3_t
 230:/usr/lib/gcc/arm-linux-gnueabihf/4.9/include/arm_neon.h **** {
 231:/usr/lib/gcc/arm-linux-gnueabihf/4.9/include/arm_neon.h ****   int32x4_t val[3];
 232:/usr/lib/gcc/arm-linux-gnueabihf/4.9/include/arm_neon.h **** } int32x4x3_t;
 233:/usr/lib/gcc/arm-linux-gnueabihf/4.9/include/arm_neon.h **** 
 234:/usr/lib/gcc/arm-linux-gnueabihf/4.9/include/arm_neon.h **** typedef struct int64x1x3_t
 235:/usr/lib/gcc/arm-linux-gnueabihf/4.9/include/arm_neon.h **** {
 236:/usr/lib/gcc/arm-linux-gnueabihf/4.9/include/arm_neon.h ****   int64x1_t val[3];
 237:/usr/lib/gcc/arm-linux-gnueabihf/4.9/include/arm_neon.h **** } int64x1x3_t;
 238:/usr/lib/gcc/arm-linux-gnueabihf/4.9/include/arm_neon.h **** 
 239:/usr/lib/gcc/arm-linux-gnueabihf/4.9/include/arm_neon.h **** typedef struct int64x2x3_t
 240:/usr/lib/gcc/arm-linux-gnueabihf/4.9/include/arm_neon.h **** {
 241:/usr/lib/gcc/arm-linux-gnueabihf/4.9/include/arm_neon.h ****   int64x2_t val[3];
 242:/usr/lib/gcc/arm-linux-gnueabihf/4.9/include/arm_neon.h **** } int64x2x3_t;
 243:/usr/lib/gcc/arm-linux-gnueabihf/4.9/include/arm_neon.h **** 
 244:/usr/lib/gcc/arm-linux-gnueabihf/4.9/include/arm_neon.h **** typedef struct uint8x8x3_t
 245:/usr/lib/gcc/arm-linux-gnueabihf/4.9/include/arm_neon.h **** {
 246:/usr/lib/gcc/arm-linux-gnueabihf/4.9/include/arm_neon.h ****   uint8x8_t val[3];
 247:/usr/lib/gcc/arm-linux-gnueabihf/4.9/include/arm_neon.h **** } uint8x8x3_t;
 248:/usr/lib/gcc/arm-linux-gnueabihf/4.9/include/arm_neon.h **** 
 249:/usr/lib/gcc/arm-linux-gnueabihf/4.9/include/arm_neon.h **** typedef struct uint8x16x3_t
 250:/usr/lib/gcc/arm-linux-gnueabihf/4.9/include/arm_neon.h **** {
 251:/usr/lib/gcc/arm-linux-gnueabihf/4.9/include/arm_neon.h ****   uint8x16_t val[3];
 252:/usr/lib/gcc/arm-linux-gnueabihf/4.9/include/arm_neon.h **** } uint8x16x3_t;
 253:/usr/lib/gcc/arm-linux-gnueabihf/4.9/include/arm_neon.h **** 
 254:/usr/lib/gcc/arm-linux-gnueabihf/4.9/include/arm_neon.h **** typedef struct uint16x4x3_t
 255:/usr/lib/gcc/arm-linux-gnueabihf/4.9/include/arm_neon.h **** {
 256:/usr/lib/gcc/arm-linux-gnueabihf/4.9/include/arm_neon.h ****   uint16x4_t val[3];
 257:/usr/lib/gcc/arm-linux-gnueabihf/4.9/include/arm_neon.h **** } uint16x4x3_t;
 258:/usr/lib/gcc/arm-linux-gnueabihf/4.9/include/arm_neon.h **** 
 259:/usr/lib/gcc/arm-linux-gnueabihf/4.9/include/arm_neon.h **** typedef struct uint16x8x3_t
 260:/usr/lib/gcc/arm-linux-gnueabihf/4.9/include/arm_neon.h **** {
 261:/usr/lib/gcc/arm-linux-gnueabihf/4.9/include/arm_neon.h ****   uint16x8_t val[3];
 262:/usr/lib/gcc/arm-linux-gnueabihf/4.9/include/arm_neon.h **** } uint16x8x3_t;
 263:/usr/lib/gcc/arm-linux-gnueabihf/4.9/include/arm_neon.h **** 
 264:/usr/lib/gcc/arm-linux-gnueabihf/4.9/include/arm_neon.h **** typedef struct uint32x2x3_t
 265:/usr/lib/gcc/arm-linux-gnueabihf/4.9/include/arm_neon.h **** {
 266:/usr/lib/gcc/arm-linux-gnueabihf/4.9/include/arm_neon.h ****   uint32x2_t val[3];
 267:/usr/lib/gcc/arm-linux-gnueabihf/4.9/include/arm_neon.h **** } uint32x2x3_t;
 268:/usr/lib/gcc/arm-linux-gnueabihf/4.9/include/arm_neon.h **** 
 269:/usr/lib/gcc/arm-linux-gnueabihf/4.9/include/arm_neon.h **** typedef struct uint32x4x3_t
 270:/usr/lib/gcc/arm-linux-gnueabihf/4.9/include/arm_neon.h **** {
 271:/usr/lib/gcc/arm-linux-gnueabihf/4.9/include/arm_neon.h ****   uint32x4_t val[3];
 272:/usr/lib/gcc/arm-linux-gnueabihf/4.9/include/arm_neon.h **** } uint32x4x3_t;
 273:/usr/lib/gcc/arm-linux-gnueabihf/4.9/include/arm_neon.h **** 
 274:/usr/lib/gcc/arm-linux-gnueabihf/4.9/include/arm_neon.h **** typedef struct uint64x1x3_t
 275:/usr/lib/gcc/arm-linux-gnueabihf/4.9/include/arm_neon.h **** {
 276:/usr/lib/gcc/arm-linux-gnueabihf/4.9/include/arm_neon.h ****   uint64x1_t val[3];
 277:/usr/lib/gcc/arm-linux-gnueabihf/4.9/include/arm_neon.h **** } uint64x1x3_t;
 278:/usr/lib/gcc/arm-linux-gnueabihf/4.9/include/arm_neon.h **** 
 279:/usr/lib/gcc/arm-linux-gnueabihf/4.9/include/arm_neon.h **** typedef struct uint64x2x3_t
 280:/usr/lib/gcc/arm-linux-gnueabihf/4.9/include/arm_neon.h **** {
 281:/usr/lib/gcc/arm-linux-gnueabihf/4.9/include/arm_neon.h ****   uint64x2_t val[3];
 282:/usr/lib/gcc/arm-linux-gnueabihf/4.9/include/arm_neon.h **** } uint64x2x3_t;
 283:/usr/lib/gcc/arm-linux-gnueabihf/4.9/include/arm_neon.h **** 
 284:/usr/lib/gcc/arm-linux-gnueabihf/4.9/include/arm_neon.h **** typedef struct float32x2x3_t
 285:/usr/lib/gcc/arm-linux-gnueabihf/4.9/include/arm_neon.h **** {
 286:/usr/lib/gcc/arm-linux-gnueabihf/4.9/include/arm_neon.h ****   float32x2_t val[3];
 287:/usr/lib/gcc/arm-linux-gnueabihf/4.9/include/arm_neon.h **** } float32x2x3_t;
 288:/usr/lib/gcc/arm-linux-gnueabihf/4.9/include/arm_neon.h **** 
 289:/usr/lib/gcc/arm-linux-gnueabihf/4.9/include/arm_neon.h **** typedef struct float32x4x3_t
 290:/usr/lib/gcc/arm-linux-gnueabihf/4.9/include/arm_neon.h **** {
 291:/usr/lib/gcc/arm-linux-gnueabihf/4.9/include/arm_neon.h ****   float32x4_t val[3];
 292:/usr/lib/gcc/arm-linux-gnueabihf/4.9/include/arm_neon.h **** } float32x4x3_t;
 293:/usr/lib/gcc/arm-linux-gnueabihf/4.9/include/arm_neon.h **** 
 294:/usr/lib/gcc/arm-linux-gnueabihf/4.9/include/arm_neon.h **** typedef struct poly8x8x3_t
 295:/usr/lib/gcc/arm-linux-gnueabihf/4.9/include/arm_neon.h **** {
 296:/usr/lib/gcc/arm-linux-gnueabihf/4.9/include/arm_neon.h ****   poly8x8_t val[3];
 297:/usr/lib/gcc/arm-linux-gnueabihf/4.9/include/arm_neon.h **** } poly8x8x3_t;
 298:/usr/lib/gcc/arm-linux-gnueabihf/4.9/include/arm_neon.h **** 
 299:/usr/lib/gcc/arm-linux-gnueabihf/4.9/include/arm_neon.h **** typedef struct poly8x16x3_t
 300:/usr/lib/gcc/arm-linux-gnueabihf/4.9/include/arm_neon.h **** {
 301:/usr/lib/gcc/arm-linux-gnueabihf/4.9/include/arm_neon.h ****   poly8x16_t val[3];
 302:/usr/lib/gcc/arm-linux-gnueabihf/4.9/include/arm_neon.h **** } poly8x16x3_t;
 303:/usr/lib/gcc/arm-linux-gnueabihf/4.9/include/arm_neon.h **** 
 304:/usr/lib/gcc/arm-linux-gnueabihf/4.9/include/arm_neon.h **** typedef struct poly16x4x3_t
 305:/usr/lib/gcc/arm-linux-gnueabihf/4.9/include/arm_neon.h **** {
 306:/usr/lib/gcc/arm-linux-gnueabihf/4.9/include/arm_neon.h ****   poly16x4_t val[3];
 307:/usr/lib/gcc/arm-linux-gnueabihf/4.9/include/arm_neon.h **** } poly16x4x3_t;
 308:/usr/lib/gcc/arm-linux-gnueabihf/4.9/include/arm_neon.h **** 
 309:/usr/lib/gcc/arm-linux-gnueabihf/4.9/include/arm_neon.h **** typedef struct poly16x8x3_t
 310:/usr/lib/gcc/arm-linux-gnueabihf/4.9/include/arm_neon.h **** {
 311:/usr/lib/gcc/arm-linux-gnueabihf/4.9/include/arm_neon.h ****   poly16x8_t val[3];
 312:/usr/lib/gcc/arm-linux-gnueabihf/4.9/include/arm_neon.h **** } poly16x8x3_t;
 313:/usr/lib/gcc/arm-linux-gnueabihf/4.9/include/arm_neon.h **** 
 314:/usr/lib/gcc/arm-linux-gnueabihf/4.9/include/arm_neon.h **** #ifdef __ARM_FEATURE_CRYPTO
 315:/usr/lib/gcc/arm-linux-gnueabihf/4.9/include/arm_neon.h **** typedef struct poly64x1x3_t
 316:/usr/lib/gcc/arm-linux-gnueabihf/4.9/include/arm_neon.h **** {
 317:/usr/lib/gcc/arm-linux-gnueabihf/4.9/include/arm_neon.h ****   poly64x1_t val[3];
 318:/usr/lib/gcc/arm-linux-gnueabihf/4.9/include/arm_neon.h **** } poly64x1x3_t;
 319:/usr/lib/gcc/arm-linux-gnueabihf/4.9/include/arm_neon.h **** #endif
 320:/usr/lib/gcc/arm-linux-gnueabihf/4.9/include/arm_neon.h **** 
 321:/usr/lib/gcc/arm-linux-gnueabihf/4.9/include/arm_neon.h **** 
 322:/usr/lib/gcc/arm-linux-gnueabihf/4.9/include/arm_neon.h **** #ifdef __ARM_FEATURE_CRYPTO
 323:/usr/lib/gcc/arm-linux-gnueabihf/4.9/include/arm_neon.h **** typedef struct poly64x2x3_t
 324:/usr/lib/gcc/arm-linux-gnueabihf/4.9/include/arm_neon.h **** {
 325:/usr/lib/gcc/arm-linux-gnueabihf/4.9/include/arm_neon.h ****   poly64x2_t val[3];
 326:/usr/lib/gcc/arm-linux-gnueabihf/4.9/include/arm_neon.h **** } poly64x2x3_t;
 327:/usr/lib/gcc/arm-linux-gnueabihf/4.9/include/arm_neon.h **** #endif
 328:/usr/lib/gcc/arm-linux-gnueabihf/4.9/include/arm_neon.h **** 
 329:/usr/lib/gcc/arm-linux-gnueabihf/4.9/include/arm_neon.h **** 
 330:/usr/lib/gcc/arm-linux-gnueabihf/4.9/include/arm_neon.h **** typedef struct int8x8x4_t
 331:/usr/lib/gcc/arm-linux-gnueabihf/4.9/include/arm_neon.h **** {
 332:/usr/lib/gcc/arm-linux-gnueabihf/4.9/include/arm_neon.h ****   int8x8_t val[4];
 333:/usr/lib/gcc/arm-linux-gnueabihf/4.9/include/arm_neon.h **** } int8x8x4_t;
 334:/usr/lib/gcc/arm-linux-gnueabihf/4.9/include/arm_neon.h **** 
 335:/usr/lib/gcc/arm-linux-gnueabihf/4.9/include/arm_neon.h **** typedef struct int8x16x4_t
 336:/usr/lib/gcc/arm-linux-gnueabihf/4.9/include/arm_neon.h **** {
 337:/usr/lib/gcc/arm-linux-gnueabihf/4.9/include/arm_neon.h ****   int8x16_t val[4];
 338:/usr/lib/gcc/arm-linux-gnueabihf/4.9/include/arm_neon.h **** } int8x16x4_t;
 339:/usr/lib/gcc/arm-linux-gnueabihf/4.9/include/arm_neon.h **** 
 340:/usr/lib/gcc/arm-linux-gnueabihf/4.9/include/arm_neon.h **** typedef struct int16x4x4_t
 341:/usr/lib/gcc/arm-linux-gnueabihf/4.9/include/arm_neon.h **** {
 342:/usr/lib/gcc/arm-linux-gnueabihf/4.9/include/arm_neon.h ****   int16x4_t val[4];
 343:/usr/lib/gcc/arm-linux-gnueabihf/4.9/include/arm_neon.h **** } int16x4x4_t;
 344:/usr/lib/gcc/arm-linux-gnueabihf/4.9/include/arm_neon.h **** 
 345:/usr/lib/gcc/arm-linux-gnueabihf/4.9/include/arm_neon.h **** typedef struct int16x8x4_t
 346:/usr/lib/gcc/arm-linux-gnueabihf/4.9/include/arm_neon.h **** {
 347:/usr/lib/gcc/arm-linux-gnueabihf/4.9/include/arm_neon.h ****   int16x8_t val[4];
 348:/usr/lib/gcc/arm-linux-gnueabihf/4.9/include/arm_neon.h **** } int16x8x4_t;
 349:/usr/lib/gcc/arm-linux-gnueabihf/4.9/include/arm_neon.h **** 
 350:/usr/lib/gcc/arm-linux-gnueabihf/4.9/include/arm_neon.h **** typedef struct int32x2x4_t
 351:/usr/lib/gcc/arm-linux-gnueabihf/4.9/include/arm_neon.h **** {
 352:/usr/lib/gcc/arm-linux-gnueabihf/4.9/include/arm_neon.h ****   int32x2_t val[4];
 353:/usr/lib/gcc/arm-linux-gnueabihf/4.9/include/arm_neon.h **** } int32x2x4_t;
 354:/usr/lib/gcc/arm-linux-gnueabihf/4.9/include/arm_neon.h **** 
 355:/usr/lib/gcc/arm-linux-gnueabihf/4.9/include/arm_neon.h **** typedef struct int32x4x4_t
 356:/usr/lib/gcc/arm-linux-gnueabihf/4.9/include/arm_neon.h **** {
 357:/usr/lib/gcc/arm-linux-gnueabihf/4.9/include/arm_neon.h ****   int32x4_t val[4];
 358:/usr/lib/gcc/arm-linux-gnueabihf/4.9/include/arm_neon.h **** } int32x4x4_t;
 359:/usr/lib/gcc/arm-linux-gnueabihf/4.9/include/arm_neon.h **** 
 360:/usr/lib/gcc/arm-linux-gnueabihf/4.9/include/arm_neon.h **** typedef struct int64x1x4_t
 361:/usr/lib/gcc/arm-linux-gnueabihf/4.9/include/arm_neon.h **** {
 362:/usr/lib/gcc/arm-linux-gnueabihf/4.9/include/arm_neon.h ****   int64x1_t val[4];
 363:/usr/lib/gcc/arm-linux-gnueabihf/4.9/include/arm_neon.h **** } int64x1x4_t;
 364:/usr/lib/gcc/arm-linux-gnueabihf/4.9/include/arm_neon.h **** 
 365:/usr/lib/gcc/arm-linux-gnueabihf/4.9/include/arm_neon.h **** typedef struct int64x2x4_t
 366:/usr/lib/gcc/arm-linux-gnueabihf/4.9/include/arm_neon.h **** {
 367:/usr/lib/gcc/arm-linux-gnueabihf/4.9/include/arm_neon.h ****   int64x2_t val[4];
 368:/usr/lib/gcc/arm-linux-gnueabihf/4.9/include/arm_neon.h **** } int64x2x4_t;
 369:/usr/lib/gcc/arm-linux-gnueabihf/4.9/include/arm_neon.h **** 
 370:/usr/lib/gcc/arm-linux-gnueabihf/4.9/include/arm_neon.h **** typedef struct uint8x8x4_t
 371:/usr/lib/gcc/arm-linux-gnueabihf/4.9/include/arm_neon.h **** {
 372:/usr/lib/gcc/arm-linux-gnueabihf/4.9/include/arm_neon.h ****   uint8x8_t val[4];
 373:/usr/lib/gcc/arm-linux-gnueabihf/4.9/include/arm_neon.h **** } uint8x8x4_t;
 374:/usr/lib/gcc/arm-linux-gnueabihf/4.9/include/arm_neon.h **** 
 375:/usr/lib/gcc/arm-linux-gnueabihf/4.9/include/arm_neon.h **** typedef struct uint8x16x4_t
 376:/usr/lib/gcc/arm-linux-gnueabihf/4.9/include/arm_neon.h **** {
 377:/usr/lib/gcc/arm-linux-gnueabihf/4.9/include/arm_neon.h ****   uint8x16_t val[4];
 378:/usr/lib/gcc/arm-linux-gnueabihf/4.9/include/arm_neon.h **** } uint8x16x4_t;
 379:/usr/lib/gcc/arm-linux-gnueabihf/4.9/include/arm_neon.h **** 
 380:/usr/lib/gcc/arm-linux-gnueabihf/4.9/include/arm_neon.h **** typedef struct uint16x4x4_t
 381:/usr/lib/gcc/arm-linux-gnueabihf/4.9/include/arm_neon.h **** {
 382:/usr/lib/gcc/arm-linux-gnueabihf/4.9/include/arm_neon.h ****   uint16x4_t val[4];
 383:/usr/lib/gcc/arm-linux-gnueabihf/4.9/include/arm_neon.h **** } uint16x4x4_t;
 384:/usr/lib/gcc/arm-linux-gnueabihf/4.9/include/arm_neon.h **** 
 385:/usr/lib/gcc/arm-linux-gnueabihf/4.9/include/arm_neon.h **** typedef struct uint16x8x4_t
 386:/usr/lib/gcc/arm-linux-gnueabihf/4.9/include/arm_neon.h **** {
 387:/usr/lib/gcc/arm-linux-gnueabihf/4.9/include/arm_neon.h ****   uint16x8_t val[4];
 388:/usr/lib/gcc/arm-linux-gnueabihf/4.9/include/arm_neon.h **** } uint16x8x4_t;
 389:/usr/lib/gcc/arm-linux-gnueabihf/4.9/include/arm_neon.h **** 
 390:/usr/lib/gcc/arm-linux-gnueabihf/4.9/include/arm_neon.h **** typedef struct uint32x2x4_t
 391:/usr/lib/gcc/arm-linux-gnueabihf/4.9/include/arm_neon.h **** {
 392:/usr/lib/gcc/arm-linux-gnueabihf/4.9/include/arm_neon.h ****   uint32x2_t val[4];
 393:/usr/lib/gcc/arm-linux-gnueabihf/4.9/include/arm_neon.h **** } uint32x2x4_t;
 394:/usr/lib/gcc/arm-linux-gnueabihf/4.9/include/arm_neon.h **** 
 395:/usr/lib/gcc/arm-linux-gnueabihf/4.9/include/arm_neon.h **** typedef struct uint32x4x4_t
 396:/usr/lib/gcc/arm-linux-gnueabihf/4.9/include/arm_neon.h **** {
 397:/usr/lib/gcc/arm-linux-gnueabihf/4.9/include/arm_neon.h ****   uint32x4_t val[4];
 398:/usr/lib/gcc/arm-linux-gnueabihf/4.9/include/arm_neon.h **** } uint32x4x4_t;
 399:/usr/lib/gcc/arm-linux-gnueabihf/4.9/include/arm_neon.h **** 
 400:/usr/lib/gcc/arm-linux-gnueabihf/4.9/include/arm_neon.h **** typedef struct uint64x1x4_t
 401:/usr/lib/gcc/arm-linux-gnueabihf/4.9/include/arm_neon.h **** {
 402:/usr/lib/gcc/arm-linux-gnueabihf/4.9/include/arm_neon.h ****   uint64x1_t val[4];
 403:/usr/lib/gcc/arm-linux-gnueabihf/4.9/include/arm_neon.h **** } uint64x1x4_t;
 404:/usr/lib/gcc/arm-linux-gnueabihf/4.9/include/arm_neon.h **** 
 405:/usr/lib/gcc/arm-linux-gnueabihf/4.9/include/arm_neon.h **** typedef struct uint64x2x4_t
 406:/usr/lib/gcc/arm-linux-gnueabihf/4.9/include/arm_neon.h **** {
 407:/usr/lib/gcc/arm-linux-gnueabihf/4.9/include/arm_neon.h ****   uint64x2_t val[4];
 408:/usr/lib/gcc/arm-linux-gnueabihf/4.9/include/arm_neon.h **** } uint64x2x4_t;
 409:/usr/lib/gcc/arm-linux-gnueabihf/4.9/include/arm_neon.h **** 
 410:/usr/lib/gcc/arm-linux-gnueabihf/4.9/include/arm_neon.h **** typedef struct float32x2x4_t
 411:/usr/lib/gcc/arm-linux-gnueabihf/4.9/include/arm_neon.h **** {
 412:/usr/lib/gcc/arm-linux-gnueabihf/4.9/include/arm_neon.h ****   float32x2_t val[4];
 413:/usr/lib/gcc/arm-linux-gnueabihf/4.9/include/arm_neon.h **** } float32x2x4_t;
 414:/usr/lib/gcc/arm-linux-gnueabihf/4.9/include/arm_neon.h **** 
 415:/usr/lib/gcc/arm-linux-gnueabihf/4.9/include/arm_neon.h **** typedef struct float32x4x4_t
 416:/usr/lib/gcc/arm-linux-gnueabihf/4.9/include/arm_neon.h **** {
 417:/usr/lib/gcc/arm-linux-gnueabihf/4.9/include/arm_neon.h ****   float32x4_t val[4];
 418:/usr/lib/gcc/arm-linux-gnueabihf/4.9/include/arm_neon.h **** } float32x4x4_t;
 419:/usr/lib/gcc/arm-linux-gnueabihf/4.9/include/arm_neon.h **** 
 420:/usr/lib/gcc/arm-linux-gnueabihf/4.9/include/arm_neon.h **** typedef struct poly8x8x4_t
 421:/usr/lib/gcc/arm-linux-gnueabihf/4.9/include/arm_neon.h **** {
 422:/usr/lib/gcc/arm-linux-gnueabihf/4.9/include/arm_neon.h ****   poly8x8_t val[4];
 423:/usr/lib/gcc/arm-linux-gnueabihf/4.9/include/arm_neon.h **** } poly8x8x4_t;
 424:/usr/lib/gcc/arm-linux-gnueabihf/4.9/include/arm_neon.h **** 
 425:/usr/lib/gcc/arm-linux-gnueabihf/4.9/include/arm_neon.h **** typedef struct poly8x16x4_t
 426:/usr/lib/gcc/arm-linux-gnueabihf/4.9/include/arm_neon.h **** {
 427:/usr/lib/gcc/arm-linux-gnueabihf/4.9/include/arm_neon.h ****   poly8x16_t val[4];
 428:/usr/lib/gcc/arm-linux-gnueabihf/4.9/include/arm_neon.h **** } poly8x16x4_t;
 429:/usr/lib/gcc/arm-linux-gnueabihf/4.9/include/arm_neon.h **** 
 430:/usr/lib/gcc/arm-linux-gnueabihf/4.9/include/arm_neon.h **** typedef struct poly16x4x4_t
 431:/usr/lib/gcc/arm-linux-gnueabihf/4.9/include/arm_neon.h **** {
 432:/usr/lib/gcc/arm-linux-gnueabihf/4.9/include/arm_neon.h ****   poly16x4_t val[4];
 433:/usr/lib/gcc/arm-linux-gnueabihf/4.9/include/arm_neon.h **** } poly16x4x4_t;
 434:/usr/lib/gcc/arm-linux-gnueabihf/4.9/include/arm_neon.h **** 
 435:/usr/lib/gcc/arm-linux-gnueabihf/4.9/include/arm_neon.h **** typedef struct poly16x8x4_t
 436:/usr/lib/gcc/arm-linux-gnueabihf/4.9/include/arm_neon.h **** {
 437:/usr/lib/gcc/arm-linux-gnueabihf/4.9/include/arm_neon.h ****   poly16x8_t val[4];
 438:/usr/lib/gcc/arm-linux-gnueabihf/4.9/include/arm_neon.h **** } poly16x8x4_t;
 439:/usr/lib/gcc/arm-linux-gnueabihf/4.9/include/arm_neon.h **** 
 440:/usr/lib/gcc/arm-linux-gnueabihf/4.9/include/arm_neon.h **** #ifdef __ARM_FEATURE_CRYPTO
 441:/usr/lib/gcc/arm-linux-gnueabihf/4.9/include/arm_neon.h **** typedef struct poly64x1x4_t
 442:/usr/lib/gcc/arm-linux-gnueabihf/4.9/include/arm_neon.h **** {
 443:/usr/lib/gcc/arm-linux-gnueabihf/4.9/include/arm_neon.h ****   poly64x1_t val[4];
 444:/usr/lib/gcc/arm-linux-gnueabihf/4.9/include/arm_neon.h **** } poly64x1x4_t;
 445:/usr/lib/gcc/arm-linux-gnueabihf/4.9/include/arm_neon.h **** #endif
 446:/usr/lib/gcc/arm-linux-gnueabihf/4.9/include/arm_neon.h **** 
 447:/usr/lib/gcc/arm-linux-gnueabihf/4.9/include/arm_neon.h **** 
 448:/usr/lib/gcc/arm-linux-gnueabihf/4.9/include/arm_neon.h **** #ifdef __ARM_FEATURE_CRYPTO
 449:/usr/lib/gcc/arm-linux-gnueabihf/4.9/include/arm_neon.h **** typedef struct poly64x2x4_t
 450:/usr/lib/gcc/arm-linux-gnueabihf/4.9/include/arm_neon.h **** {
 451:/usr/lib/gcc/arm-linux-gnueabihf/4.9/include/arm_neon.h ****   poly64x2_t val[4];
 452:/usr/lib/gcc/arm-linux-gnueabihf/4.9/include/arm_neon.h **** } poly64x2x4_t;
 453:/usr/lib/gcc/arm-linux-gnueabihf/4.9/include/arm_neon.h **** #endif
 454:/usr/lib/gcc/arm-linux-gnueabihf/4.9/include/arm_neon.h **** 
 455:/usr/lib/gcc/arm-linux-gnueabihf/4.9/include/arm_neon.h **** 
 456:/usr/lib/gcc/arm-linux-gnueabihf/4.9/include/arm_neon.h **** 
 457:/usr/lib/gcc/arm-linux-gnueabihf/4.9/include/arm_neon.h **** __extension__ static __inline int8x8_t __attribute__ ((__always_inline__))
 458:/usr/lib/gcc/arm-linux-gnueabihf/4.9/include/arm_neon.h **** vadd_s8 (int8x8_t __a, int8x8_t __b)
 459:/usr/lib/gcc/arm-linux-gnueabihf/4.9/include/arm_neon.h **** {
 460:/usr/lib/gcc/arm-linux-gnueabihf/4.9/include/arm_neon.h ****   return (int8x8_t)__builtin_neon_vaddv8qi (__a, __b, 1);
 461:/usr/lib/gcc/arm-linux-gnueabihf/4.9/include/arm_neon.h **** }
 462:/usr/lib/gcc/arm-linux-gnueabihf/4.9/include/arm_neon.h **** 
 463:/usr/lib/gcc/arm-linux-gnueabihf/4.9/include/arm_neon.h **** __extension__ static __inline int16x4_t __attribute__ ((__always_inline__))
 464:/usr/lib/gcc/arm-linux-gnueabihf/4.9/include/arm_neon.h **** vadd_s16 (int16x4_t __a, int16x4_t __b)
 465:/usr/lib/gcc/arm-linux-gnueabihf/4.9/include/arm_neon.h **** {
 466:/usr/lib/gcc/arm-linux-gnueabihf/4.9/include/arm_neon.h ****   return (int16x4_t)__builtin_neon_vaddv4hi (__a, __b, 1);
 467:/usr/lib/gcc/arm-linux-gnueabihf/4.9/include/arm_neon.h **** }
 468:/usr/lib/gcc/arm-linux-gnueabihf/4.9/include/arm_neon.h **** 
 469:/usr/lib/gcc/arm-linux-gnueabihf/4.9/include/arm_neon.h **** __extension__ static __inline int32x2_t __attribute__ ((__always_inline__))
 470:/usr/lib/gcc/arm-linux-gnueabihf/4.9/include/arm_neon.h **** vadd_s32 (int32x2_t __a, int32x2_t __b)
 471:/usr/lib/gcc/arm-linux-gnueabihf/4.9/include/arm_neon.h **** {
 472:/usr/lib/gcc/arm-linux-gnueabihf/4.9/include/arm_neon.h ****   return (int32x2_t)__builtin_neon_vaddv2si (__a, __b, 1);
 473:/usr/lib/gcc/arm-linux-gnueabihf/4.9/include/arm_neon.h **** }
 474:/usr/lib/gcc/arm-linux-gnueabihf/4.9/include/arm_neon.h **** 
 475:/usr/lib/gcc/arm-linux-gnueabihf/4.9/include/arm_neon.h **** __extension__ static __inline float32x2_t __attribute__ ((__always_inline__))
 476:/usr/lib/gcc/arm-linux-gnueabihf/4.9/include/arm_neon.h **** vadd_f32 (float32x2_t __a, float32x2_t __b)
 477:/usr/lib/gcc/arm-linux-gnueabihf/4.9/include/arm_neon.h **** {
 478:/usr/lib/gcc/arm-linux-gnueabihf/4.9/include/arm_neon.h ****   return (float32x2_t)__builtin_neon_vaddv2sf (__a, __b, 3);
 479:/usr/lib/gcc/arm-linux-gnueabihf/4.9/include/arm_neon.h **** }
 480:/usr/lib/gcc/arm-linux-gnueabihf/4.9/include/arm_neon.h **** 
 481:/usr/lib/gcc/arm-linux-gnueabihf/4.9/include/arm_neon.h **** __extension__ static __inline uint8x8_t __attribute__ ((__always_inline__))
 482:/usr/lib/gcc/arm-linux-gnueabihf/4.9/include/arm_neon.h **** vadd_u8 (uint8x8_t __a, uint8x8_t __b)
 483:/usr/lib/gcc/arm-linux-gnueabihf/4.9/include/arm_neon.h **** {
 484:/usr/lib/gcc/arm-linux-gnueabihf/4.9/include/arm_neon.h ****   return (uint8x8_t)__builtin_neon_vaddv8qi ((int8x8_t) __a, (int8x8_t) __b, 0);
 485:/usr/lib/gcc/arm-linux-gnueabihf/4.9/include/arm_neon.h **** }
 486:/usr/lib/gcc/arm-linux-gnueabihf/4.9/include/arm_neon.h **** 
 487:/usr/lib/gcc/arm-linux-gnueabihf/4.9/include/arm_neon.h **** __extension__ static __inline uint16x4_t __attribute__ ((__always_inline__))
 488:/usr/lib/gcc/arm-linux-gnueabihf/4.9/include/arm_neon.h **** vadd_u16 (uint16x4_t __a, uint16x4_t __b)
 489:/usr/lib/gcc/arm-linux-gnueabihf/4.9/include/arm_neon.h **** {
 490:/usr/lib/gcc/arm-linux-gnueabihf/4.9/include/arm_neon.h ****   return (uint16x4_t)__builtin_neon_vaddv4hi ((int16x4_t) __a, (int16x4_t) __b, 0);
 491:/usr/lib/gcc/arm-linux-gnueabihf/4.9/include/arm_neon.h **** }
 492:/usr/lib/gcc/arm-linux-gnueabihf/4.9/include/arm_neon.h **** 
 493:/usr/lib/gcc/arm-linux-gnueabihf/4.9/include/arm_neon.h **** __extension__ static __inline uint32x2_t __attribute__ ((__always_inline__))
 494:/usr/lib/gcc/arm-linux-gnueabihf/4.9/include/arm_neon.h **** vadd_u32 (uint32x2_t __a, uint32x2_t __b)
 495:/usr/lib/gcc/arm-linux-gnueabihf/4.9/include/arm_neon.h **** {
 496:/usr/lib/gcc/arm-linux-gnueabihf/4.9/include/arm_neon.h ****   return (uint32x2_t)__builtin_neon_vaddv2si ((int32x2_t) __a, (int32x2_t) __b, 0);
 497:/usr/lib/gcc/arm-linux-gnueabihf/4.9/include/arm_neon.h **** }
 498:/usr/lib/gcc/arm-linux-gnueabihf/4.9/include/arm_neon.h **** 
 499:/usr/lib/gcc/arm-linux-gnueabihf/4.9/include/arm_neon.h **** __extension__ static __inline int64x1_t __attribute__ ((__always_inline__))
 500:/usr/lib/gcc/arm-linux-gnueabihf/4.9/include/arm_neon.h **** vadd_s64 (int64x1_t __a, int64x1_t __b)
 501:/usr/lib/gcc/arm-linux-gnueabihf/4.9/include/arm_neon.h **** {
 502:/usr/lib/gcc/arm-linux-gnueabihf/4.9/include/arm_neon.h ****   return (int64x1_t)__builtin_neon_vadddi (__a, __b, 1);
 503:/usr/lib/gcc/arm-linux-gnueabihf/4.9/include/arm_neon.h **** }
 504:/usr/lib/gcc/arm-linux-gnueabihf/4.9/include/arm_neon.h **** 
 505:/usr/lib/gcc/arm-linux-gnueabihf/4.9/include/arm_neon.h **** __extension__ static __inline uint64x1_t __attribute__ ((__always_inline__))
 506:/usr/lib/gcc/arm-linux-gnueabihf/4.9/include/arm_neon.h **** vadd_u64 (uint64x1_t __a, uint64x1_t __b)
 507:/usr/lib/gcc/arm-linux-gnueabihf/4.9/include/arm_neon.h **** {
 508:/usr/lib/gcc/arm-linux-gnueabihf/4.9/include/arm_neon.h ****   return (uint64x1_t)__builtin_neon_vadddi ((int64x1_t) __a, (int64x1_t) __b, 0);
 509:/usr/lib/gcc/arm-linux-gnueabihf/4.9/include/arm_neon.h **** }
 510:/usr/lib/gcc/arm-linux-gnueabihf/4.9/include/arm_neon.h **** 
 511:/usr/lib/gcc/arm-linux-gnueabihf/4.9/include/arm_neon.h **** __extension__ static __inline int8x16_t __attribute__ ((__always_inline__))
 512:/usr/lib/gcc/arm-linux-gnueabihf/4.9/include/arm_neon.h **** vaddq_s8 (int8x16_t __a, int8x16_t __b)
 513:/usr/lib/gcc/arm-linux-gnueabihf/4.9/include/arm_neon.h **** {
 514:/usr/lib/gcc/arm-linux-gnueabihf/4.9/include/arm_neon.h ****   return (int8x16_t)__builtin_neon_vaddv16qi (__a, __b, 1);
 515:/usr/lib/gcc/arm-linux-gnueabihf/4.9/include/arm_neon.h **** }
 516:/usr/lib/gcc/arm-linux-gnueabihf/4.9/include/arm_neon.h **** 
 517:/usr/lib/gcc/arm-linux-gnueabihf/4.9/include/arm_neon.h **** __extension__ static __inline int16x8_t __attribute__ ((__always_inline__))
 518:/usr/lib/gcc/arm-linux-gnueabihf/4.9/include/arm_neon.h **** vaddq_s16 (int16x8_t __a, int16x8_t __b)
 519:/usr/lib/gcc/arm-linux-gnueabihf/4.9/include/arm_neon.h **** {
 520:/usr/lib/gcc/arm-linux-gnueabihf/4.9/include/arm_neon.h ****   return (int16x8_t)__builtin_neon_vaddv8hi (__a, __b, 1);
 521:/usr/lib/gcc/arm-linux-gnueabihf/4.9/include/arm_neon.h **** }
 522:/usr/lib/gcc/arm-linux-gnueabihf/4.9/include/arm_neon.h **** 
 523:/usr/lib/gcc/arm-linux-gnueabihf/4.9/include/arm_neon.h **** __extension__ static __inline int32x4_t __attribute__ ((__always_inline__))
 524:/usr/lib/gcc/arm-linux-gnueabihf/4.9/include/arm_neon.h **** vaddq_s32 (int32x4_t __a, int32x4_t __b)
 525:/usr/lib/gcc/arm-linux-gnueabihf/4.9/include/arm_neon.h **** {
 526:/usr/lib/gcc/arm-linux-gnueabihf/4.9/include/arm_neon.h ****   return (int32x4_t)__builtin_neon_vaddv4si (__a, __b, 1);
 527:/usr/lib/gcc/arm-linux-gnueabihf/4.9/include/arm_neon.h **** }
 528:/usr/lib/gcc/arm-linux-gnueabihf/4.9/include/arm_neon.h **** 
 529:/usr/lib/gcc/arm-linux-gnueabihf/4.9/include/arm_neon.h **** __extension__ static __inline int64x2_t __attribute__ ((__always_inline__))
 530:/usr/lib/gcc/arm-linux-gnueabihf/4.9/include/arm_neon.h **** vaddq_s64 (int64x2_t __a, int64x2_t __b)
 531:/usr/lib/gcc/arm-linux-gnueabihf/4.9/include/arm_neon.h **** {
 532:/usr/lib/gcc/arm-linux-gnueabihf/4.9/include/arm_neon.h ****   return (int64x2_t)__builtin_neon_vaddv2di (__a, __b, 1);
 533:/usr/lib/gcc/arm-linux-gnueabihf/4.9/include/arm_neon.h **** }
 534:/usr/lib/gcc/arm-linux-gnueabihf/4.9/include/arm_neon.h **** 
 535:/usr/lib/gcc/arm-linux-gnueabihf/4.9/include/arm_neon.h **** __extension__ static __inline float32x4_t __attribute__ ((__always_inline__))
 536:/usr/lib/gcc/arm-linux-gnueabihf/4.9/include/arm_neon.h **** vaddq_f32 (float32x4_t __a, float32x4_t __b)
 537:/usr/lib/gcc/arm-linux-gnueabihf/4.9/include/arm_neon.h **** {
 538:/usr/lib/gcc/arm-linux-gnueabihf/4.9/include/arm_neon.h ****   return (float32x4_t)__builtin_neon_vaddv4sf (__a, __b, 3);
 539:/usr/lib/gcc/arm-linux-gnueabihf/4.9/include/arm_neon.h **** }
 540:/usr/lib/gcc/arm-linux-gnueabihf/4.9/include/arm_neon.h **** 
 541:/usr/lib/gcc/arm-linux-gnueabihf/4.9/include/arm_neon.h **** __extension__ static __inline uint8x16_t __attribute__ ((__always_inline__))
 542:/usr/lib/gcc/arm-linux-gnueabihf/4.9/include/arm_neon.h **** vaddq_u8 (uint8x16_t __a, uint8x16_t __b)
 543:/usr/lib/gcc/arm-linux-gnueabihf/4.9/include/arm_neon.h **** {
 544:/usr/lib/gcc/arm-linux-gnueabihf/4.9/include/arm_neon.h ****   return (uint8x16_t)__builtin_neon_vaddv16qi ((int8x16_t) __a, (int8x16_t) __b, 0);
 545:/usr/lib/gcc/arm-linux-gnueabihf/4.9/include/arm_neon.h **** }
 546:/usr/lib/gcc/arm-linux-gnueabihf/4.9/include/arm_neon.h **** 
 547:/usr/lib/gcc/arm-linux-gnueabihf/4.9/include/arm_neon.h **** __extension__ static __inline uint16x8_t __attribute__ ((__always_inline__))
 548:/usr/lib/gcc/arm-linux-gnueabihf/4.9/include/arm_neon.h **** vaddq_u16 (uint16x8_t __a, uint16x8_t __b)
 549:/usr/lib/gcc/arm-linux-gnueabihf/4.9/include/arm_neon.h **** {
 550:/usr/lib/gcc/arm-linux-gnueabihf/4.9/include/arm_neon.h ****   return (uint16x8_t)__builtin_neon_vaddv8hi ((int16x8_t) __a, (int16x8_t) __b, 0);
 551:/usr/lib/gcc/arm-linux-gnueabihf/4.9/include/arm_neon.h **** }
 552:/usr/lib/gcc/arm-linux-gnueabihf/4.9/include/arm_neon.h **** 
 553:/usr/lib/gcc/arm-linux-gnueabihf/4.9/include/arm_neon.h **** __extension__ static __inline uint32x4_t __attribute__ ((__always_inline__))
 554:/usr/lib/gcc/arm-linux-gnueabihf/4.9/include/arm_neon.h **** vaddq_u32 (uint32x4_t __a, uint32x4_t __b)
 555:/usr/lib/gcc/arm-linux-gnueabihf/4.9/include/arm_neon.h **** {
 556:/usr/lib/gcc/arm-linux-gnueabihf/4.9/include/arm_neon.h ****   return (uint32x4_t)__builtin_neon_vaddv4si ((int32x4_t) __a, (int32x4_t) __b, 0);
 557:/usr/lib/gcc/arm-linux-gnueabihf/4.9/include/arm_neon.h **** }
 558:/usr/lib/gcc/arm-linux-gnueabihf/4.9/include/arm_neon.h **** 
 559:/usr/lib/gcc/arm-linux-gnueabihf/4.9/include/arm_neon.h **** __extension__ static __inline uint64x2_t __attribute__ ((__always_inline__))
 560:/usr/lib/gcc/arm-linux-gnueabihf/4.9/include/arm_neon.h **** vaddq_u64 (uint64x2_t __a, uint64x2_t __b)
 561:/usr/lib/gcc/arm-linux-gnueabihf/4.9/include/arm_neon.h **** {
 562:/usr/lib/gcc/arm-linux-gnueabihf/4.9/include/arm_neon.h ****   return (uint64x2_t)__builtin_neon_vaddv2di ((int64x2_t) __a, (int64x2_t) __b, 0);
 563:/usr/lib/gcc/arm-linux-gnueabihf/4.9/include/arm_neon.h **** }
 564:/usr/lib/gcc/arm-linux-gnueabihf/4.9/include/arm_neon.h **** 
 565:/usr/lib/gcc/arm-linux-gnueabihf/4.9/include/arm_neon.h **** __extension__ static __inline int16x8_t __attribute__ ((__always_inline__))
 566:/usr/lib/gcc/arm-linux-gnueabihf/4.9/include/arm_neon.h **** vaddl_s8 (int8x8_t __a, int8x8_t __b)
 567:/usr/lib/gcc/arm-linux-gnueabihf/4.9/include/arm_neon.h **** {
 568:/usr/lib/gcc/arm-linux-gnueabihf/4.9/include/arm_neon.h ****   return (int16x8_t)__builtin_neon_vaddlv8qi (__a, __b, 1);
 569:/usr/lib/gcc/arm-linux-gnueabihf/4.9/include/arm_neon.h **** }
 570:/usr/lib/gcc/arm-linux-gnueabihf/4.9/include/arm_neon.h **** 
 571:/usr/lib/gcc/arm-linux-gnueabihf/4.9/include/arm_neon.h **** __extension__ static __inline int32x4_t __attribute__ ((__always_inline__))
 572:/usr/lib/gcc/arm-linux-gnueabihf/4.9/include/arm_neon.h **** vaddl_s16 (int16x4_t __a, int16x4_t __b)
 573:/usr/lib/gcc/arm-linux-gnueabihf/4.9/include/arm_neon.h **** {
 574:/usr/lib/gcc/arm-linux-gnueabihf/4.9/include/arm_neon.h ****   return (int32x4_t)__builtin_neon_vaddlv4hi (__a, __b, 1);
 575:/usr/lib/gcc/arm-linux-gnueabihf/4.9/include/arm_neon.h **** }
 576:/usr/lib/gcc/arm-linux-gnueabihf/4.9/include/arm_neon.h **** 
 577:/usr/lib/gcc/arm-linux-gnueabihf/4.9/include/arm_neon.h **** __extension__ static __inline int64x2_t __attribute__ ((__always_inline__))
 578:/usr/lib/gcc/arm-linux-gnueabihf/4.9/include/arm_neon.h **** vaddl_s32 (int32x2_t __a, int32x2_t __b)
 579:/usr/lib/gcc/arm-linux-gnueabihf/4.9/include/arm_neon.h **** {
 580:/usr/lib/gcc/arm-linux-gnueabihf/4.9/include/arm_neon.h ****   return (int64x2_t)__builtin_neon_vaddlv2si (__a, __b, 1);
 581:/usr/lib/gcc/arm-linux-gnueabihf/4.9/include/arm_neon.h **** }
 582:/usr/lib/gcc/arm-linux-gnueabihf/4.9/include/arm_neon.h **** 
 583:/usr/lib/gcc/arm-linux-gnueabihf/4.9/include/arm_neon.h **** __extension__ static __inline uint16x8_t __attribute__ ((__always_inline__))
 584:/usr/lib/gcc/arm-linux-gnueabihf/4.9/include/arm_neon.h **** vaddl_u8 (uint8x8_t __a, uint8x8_t __b)
 585:/usr/lib/gcc/arm-linux-gnueabihf/4.9/include/arm_neon.h **** {
 586:/usr/lib/gcc/arm-linux-gnueabihf/4.9/include/arm_neon.h ****   return (uint16x8_t)__builtin_neon_vaddlv8qi ((int8x8_t) __a, (int8x8_t) __b, 0);
 587:/usr/lib/gcc/arm-linux-gnueabihf/4.9/include/arm_neon.h **** }
 588:/usr/lib/gcc/arm-linux-gnueabihf/4.9/include/arm_neon.h **** 
 589:/usr/lib/gcc/arm-linux-gnueabihf/4.9/include/arm_neon.h **** __extension__ static __inline uint32x4_t __attribute__ ((__always_inline__))
 590:/usr/lib/gcc/arm-linux-gnueabihf/4.9/include/arm_neon.h **** vaddl_u16 (uint16x4_t __a, uint16x4_t __b)
 591:/usr/lib/gcc/arm-linux-gnueabihf/4.9/include/arm_neon.h **** {
 592:/usr/lib/gcc/arm-linux-gnueabihf/4.9/include/arm_neon.h ****   return (uint32x4_t)__builtin_neon_vaddlv4hi ((int16x4_t) __a, (int16x4_t) __b, 0);
 593:/usr/lib/gcc/arm-linux-gnueabihf/4.9/include/arm_neon.h **** }
 594:/usr/lib/gcc/arm-linux-gnueabihf/4.9/include/arm_neon.h **** 
 595:/usr/lib/gcc/arm-linux-gnueabihf/4.9/include/arm_neon.h **** __extension__ static __inline uint64x2_t __attribute__ ((__always_inline__))
 596:/usr/lib/gcc/arm-linux-gnueabihf/4.9/include/arm_neon.h **** vaddl_u32 (uint32x2_t __a, uint32x2_t __b)
 597:/usr/lib/gcc/arm-linux-gnueabihf/4.9/include/arm_neon.h **** {
 598:/usr/lib/gcc/arm-linux-gnueabihf/4.9/include/arm_neon.h ****   return (uint64x2_t)__builtin_neon_vaddlv2si ((int32x2_t) __a, (int32x2_t) __b, 0);
 599:/usr/lib/gcc/arm-linux-gnueabihf/4.9/include/arm_neon.h **** }
 600:/usr/lib/gcc/arm-linux-gnueabihf/4.9/include/arm_neon.h **** 
 601:/usr/lib/gcc/arm-linux-gnueabihf/4.9/include/arm_neon.h **** __extension__ static __inline int16x8_t __attribute__ ((__always_inline__))
 602:/usr/lib/gcc/arm-linux-gnueabihf/4.9/include/arm_neon.h **** vaddw_s8 (int16x8_t __a, int8x8_t __b)
 603:/usr/lib/gcc/arm-linux-gnueabihf/4.9/include/arm_neon.h **** {
 604:/usr/lib/gcc/arm-linux-gnueabihf/4.9/include/arm_neon.h ****   return (int16x8_t)__builtin_neon_vaddwv8qi (__a, __b, 1);
 605:/usr/lib/gcc/arm-linux-gnueabihf/4.9/include/arm_neon.h **** }
 606:/usr/lib/gcc/arm-linux-gnueabihf/4.9/include/arm_neon.h **** 
 607:/usr/lib/gcc/arm-linux-gnueabihf/4.9/include/arm_neon.h **** __extension__ static __inline int32x4_t __attribute__ ((__always_inline__))
 608:/usr/lib/gcc/arm-linux-gnueabihf/4.9/include/arm_neon.h **** vaddw_s16 (int32x4_t __a, int16x4_t __b)
 609:/usr/lib/gcc/arm-linux-gnueabihf/4.9/include/arm_neon.h **** {
 610:/usr/lib/gcc/arm-linux-gnueabihf/4.9/include/arm_neon.h ****   return (int32x4_t)__builtin_neon_vaddwv4hi (__a, __b, 1);
 611:/usr/lib/gcc/arm-linux-gnueabihf/4.9/include/arm_neon.h **** }
 612:/usr/lib/gcc/arm-linux-gnueabihf/4.9/include/arm_neon.h **** 
 613:/usr/lib/gcc/arm-linux-gnueabihf/4.9/include/arm_neon.h **** __extension__ static __inline int64x2_t __attribute__ ((__always_inline__))
 614:/usr/lib/gcc/arm-linux-gnueabihf/4.9/include/arm_neon.h **** vaddw_s32 (int64x2_t __a, int32x2_t __b)
 615:/usr/lib/gcc/arm-linux-gnueabihf/4.9/include/arm_neon.h **** {
 616:/usr/lib/gcc/arm-linux-gnueabihf/4.9/include/arm_neon.h ****   return (int64x2_t)__builtin_neon_vaddwv2si (__a, __b, 1);
 617:/usr/lib/gcc/arm-linux-gnueabihf/4.9/include/arm_neon.h **** }
 618:/usr/lib/gcc/arm-linux-gnueabihf/4.9/include/arm_neon.h **** 
 619:/usr/lib/gcc/arm-linux-gnueabihf/4.9/include/arm_neon.h **** __extension__ static __inline uint16x8_t __attribute__ ((__always_inline__))
 620:/usr/lib/gcc/arm-linux-gnueabihf/4.9/include/arm_neon.h **** vaddw_u8 (uint16x8_t __a, uint8x8_t __b)
 621:/usr/lib/gcc/arm-linux-gnueabihf/4.9/include/arm_neon.h **** {
 622:/usr/lib/gcc/arm-linux-gnueabihf/4.9/include/arm_neon.h ****   return (uint16x8_t)__builtin_neon_vaddwv8qi ((int16x8_t) __a, (int8x8_t) __b, 0);
 623:/usr/lib/gcc/arm-linux-gnueabihf/4.9/include/arm_neon.h **** }
 624:/usr/lib/gcc/arm-linux-gnueabihf/4.9/include/arm_neon.h **** 
 625:/usr/lib/gcc/arm-linux-gnueabihf/4.9/include/arm_neon.h **** __extension__ static __inline uint32x4_t __attribute__ ((__always_inline__))
 626:/usr/lib/gcc/arm-linux-gnueabihf/4.9/include/arm_neon.h **** vaddw_u16 (uint32x4_t __a, uint16x4_t __b)
 627:/usr/lib/gcc/arm-linux-gnueabihf/4.9/include/arm_neon.h **** {
 628:/usr/lib/gcc/arm-linux-gnueabihf/4.9/include/arm_neon.h ****   return (uint32x4_t)__builtin_neon_vaddwv4hi ((int32x4_t) __a, (int16x4_t) __b, 0);
 629:/usr/lib/gcc/arm-linux-gnueabihf/4.9/include/arm_neon.h **** }
 630:/usr/lib/gcc/arm-linux-gnueabihf/4.9/include/arm_neon.h **** 
 631:/usr/lib/gcc/arm-linux-gnueabihf/4.9/include/arm_neon.h **** __extension__ static __inline uint64x2_t __attribute__ ((__always_inline__))
 632:/usr/lib/gcc/arm-linux-gnueabihf/4.9/include/arm_neon.h **** vaddw_u32 (uint64x2_t __a, uint32x2_t __b)
 633:/usr/lib/gcc/arm-linux-gnueabihf/4.9/include/arm_neon.h **** {
 634:/usr/lib/gcc/arm-linux-gnueabihf/4.9/include/arm_neon.h ****   return (uint64x2_t)__builtin_neon_vaddwv2si ((int64x2_t) __a, (int32x2_t) __b, 0);
 635:/usr/lib/gcc/arm-linux-gnueabihf/4.9/include/arm_neon.h **** }
 636:/usr/lib/gcc/arm-linux-gnueabihf/4.9/include/arm_neon.h **** 
 637:/usr/lib/gcc/arm-linux-gnueabihf/4.9/include/arm_neon.h **** __extension__ static __inline int8x8_t __attribute__ ((__always_inline__))
 638:/usr/lib/gcc/arm-linux-gnueabihf/4.9/include/arm_neon.h **** vhadd_s8 (int8x8_t __a, int8x8_t __b)
 639:/usr/lib/gcc/arm-linux-gnueabihf/4.9/include/arm_neon.h **** {
 640:/usr/lib/gcc/arm-linux-gnueabihf/4.9/include/arm_neon.h ****   return (int8x8_t)__builtin_neon_vhaddv8qi (__a, __b, 1);
 641:/usr/lib/gcc/arm-linux-gnueabihf/4.9/include/arm_neon.h **** }
 642:/usr/lib/gcc/arm-linux-gnueabihf/4.9/include/arm_neon.h **** 
 643:/usr/lib/gcc/arm-linux-gnueabihf/4.9/include/arm_neon.h **** __extension__ static __inline int16x4_t __attribute__ ((__always_inline__))
 644:/usr/lib/gcc/arm-linux-gnueabihf/4.9/include/arm_neon.h **** vhadd_s16 (int16x4_t __a, int16x4_t __b)
 645:/usr/lib/gcc/arm-linux-gnueabihf/4.9/include/arm_neon.h **** {
 646:/usr/lib/gcc/arm-linux-gnueabihf/4.9/include/arm_neon.h ****   return (int16x4_t)__builtin_neon_vhaddv4hi (__a, __b, 1);
 647:/usr/lib/gcc/arm-linux-gnueabihf/4.9/include/arm_neon.h **** }
 648:/usr/lib/gcc/arm-linux-gnueabihf/4.9/include/arm_neon.h **** 
 649:/usr/lib/gcc/arm-linux-gnueabihf/4.9/include/arm_neon.h **** __extension__ static __inline int32x2_t __attribute__ ((__always_inline__))
 650:/usr/lib/gcc/arm-linux-gnueabihf/4.9/include/arm_neon.h **** vhadd_s32 (int32x2_t __a, int32x2_t __b)
 651:/usr/lib/gcc/arm-linux-gnueabihf/4.9/include/arm_neon.h **** {
 652:/usr/lib/gcc/arm-linux-gnueabihf/4.9/include/arm_neon.h ****   return (int32x2_t)__builtin_neon_vhaddv2si (__a, __b, 1);
 653:/usr/lib/gcc/arm-linux-gnueabihf/4.9/include/arm_neon.h **** }
 654:/usr/lib/gcc/arm-linux-gnueabihf/4.9/include/arm_neon.h **** 
 655:/usr/lib/gcc/arm-linux-gnueabihf/4.9/include/arm_neon.h **** __extension__ static __inline uint8x8_t __attribute__ ((__always_inline__))
 656:/usr/lib/gcc/arm-linux-gnueabihf/4.9/include/arm_neon.h **** vhadd_u8 (uint8x8_t __a, uint8x8_t __b)
 657:/usr/lib/gcc/arm-linux-gnueabihf/4.9/include/arm_neon.h **** {
 658:/usr/lib/gcc/arm-linux-gnueabihf/4.9/include/arm_neon.h ****   return (uint8x8_t)__builtin_neon_vhaddv8qi ((int8x8_t) __a, (int8x8_t) __b, 0);
 659:/usr/lib/gcc/arm-linux-gnueabihf/4.9/include/arm_neon.h **** }
 660:/usr/lib/gcc/arm-linux-gnueabihf/4.9/include/arm_neon.h **** 
 661:/usr/lib/gcc/arm-linux-gnueabihf/4.9/include/arm_neon.h **** __extension__ static __inline uint16x4_t __attribute__ ((__always_inline__))
 662:/usr/lib/gcc/arm-linux-gnueabihf/4.9/include/arm_neon.h **** vhadd_u16 (uint16x4_t __a, uint16x4_t __b)
 663:/usr/lib/gcc/arm-linux-gnueabihf/4.9/include/arm_neon.h **** {
 664:/usr/lib/gcc/arm-linux-gnueabihf/4.9/include/arm_neon.h ****   return (uint16x4_t)__builtin_neon_vhaddv4hi ((int16x4_t) __a, (int16x4_t) __b, 0);
 665:/usr/lib/gcc/arm-linux-gnueabihf/4.9/include/arm_neon.h **** }
 666:/usr/lib/gcc/arm-linux-gnueabihf/4.9/include/arm_neon.h **** 
 667:/usr/lib/gcc/arm-linux-gnueabihf/4.9/include/arm_neon.h **** __extension__ static __inline uint32x2_t __attribute__ ((__always_inline__))
 668:/usr/lib/gcc/arm-linux-gnueabihf/4.9/include/arm_neon.h **** vhadd_u32 (uint32x2_t __a, uint32x2_t __b)
 669:/usr/lib/gcc/arm-linux-gnueabihf/4.9/include/arm_neon.h **** {
 670:/usr/lib/gcc/arm-linux-gnueabihf/4.9/include/arm_neon.h ****   return (uint32x2_t)__builtin_neon_vhaddv2si ((int32x2_t) __a, (int32x2_t) __b, 0);
 671:/usr/lib/gcc/arm-linux-gnueabihf/4.9/include/arm_neon.h **** }
 672:/usr/lib/gcc/arm-linux-gnueabihf/4.9/include/arm_neon.h **** 
 673:/usr/lib/gcc/arm-linux-gnueabihf/4.9/include/arm_neon.h **** __extension__ static __inline int8x16_t __attribute__ ((__always_inline__))
 674:/usr/lib/gcc/arm-linux-gnueabihf/4.9/include/arm_neon.h **** vhaddq_s8 (int8x16_t __a, int8x16_t __b)
 675:/usr/lib/gcc/arm-linux-gnueabihf/4.9/include/arm_neon.h **** {
 676:/usr/lib/gcc/arm-linux-gnueabihf/4.9/include/arm_neon.h ****   return (int8x16_t)__builtin_neon_vhaddv16qi (__a, __b, 1);
 677:/usr/lib/gcc/arm-linux-gnueabihf/4.9/include/arm_neon.h **** }
 678:/usr/lib/gcc/arm-linux-gnueabihf/4.9/include/arm_neon.h **** 
 679:/usr/lib/gcc/arm-linux-gnueabihf/4.9/include/arm_neon.h **** __extension__ static __inline int16x8_t __attribute__ ((__always_inline__))
 680:/usr/lib/gcc/arm-linux-gnueabihf/4.9/include/arm_neon.h **** vhaddq_s16 (int16x8_t __a, int16x8_t __b)
 681:/usr/lib/gcc/arm-linux-gnueabihf/4.9/include/arm_neon.h **** {
 682:/usr/lib/gcc/arm-linux-gnueabihf/4.9/include/arm_neon.h ****   return (int16x8_t)__builtin_neon_vhaddv8hi (__a, __b, 1);
 683:/usr/lib/gcc/arm-linux-gnueabihf/4.9/include/arm_neon.h **** }
 684:/usr/lib/gcc/arm-linux-gnueabihf/4.9/include/arm_neon.h **** 
 685:/usr/lib/gcc/arm-linux-gnueabihf/4.9/include/arm_neon.h **** __extension__ static __inline int32x4_t __attribute__ ((__always_inline__))
 686:/usr/lib/gcc/arm-linux-gnueabihf/4.9/include/arm_neon.h **** vhaddq_s32 (int32x4_t __a, int32x4_t __b)
 687:/usr/lib/gcc/arm-linux-gnueabihf/4.9/include/arm_neon.h **** {
 688:/usr/lib/gcc/arm-linux-gnueabihf/4.9/include/arm_neon.h ****   return (int32x4_t)__builtin_neon_vhaddv4si (__a, __b, 1);
 689:/usr/lib/gcc/arm-linux-gnueabihf/4.9/include/arm_neon.h **** }
 690:/usr/lib/gcc/arm-linux-gnueabihf/4.9/include/arm_neon.h **** 
 691:/usr/lib/gcc/arm-linux-gnueabihf/4.9/include/arm_neon.h **** __extension__ static __inline uint8x16_t __attribute__ ((__always_inline__))
 692:/usr/lib/gcc/arm-linux-gnueabihf/4.9/include/arm_neon.h **** vhaddq_u8 (uint8x16_t __a, uint8x16_t __b)
 693:/usr/lib/gcc/arm-linux-gnueabihf/4.9/include/arm_neon.h **** {
 694:/usr/lib/gcc/arm-linux-gnueabihf/4.9/include/arm_neon.h ****   return (uint8x16_t)__builtin_neon_vhaddv16qi ((int8x16_t) __a, (int8x16_t) __b, 0);
 695:/usr/lib/gcc/arm-linux-gnueabihf/4.9/include/arm_neon.h **** }
 696:/usr/lib/gcc/arm-linux-gnueabihf/4.9/include/arm_neon.h **** 
 697:/usr/lib/gcc/arm-linux-gnueabihf/4.9/include/arm_neon.h **** __extension__ static __inline uint16x8_t __attribute__ ((__always_inline__))
 698:/usr/lib/gcc/arm-linux-gnueabihf/4.9/include/arm_neon.h **** vhaddq_u16 (uint16x8_t __a, uint16x8_t __b)
 699:/usr/lib/gcc/arm-linux-gnueabihf/4.9/include/arm_neon.h **** {
 700:/usr/lib/gcc/arm-linux-gnueabihf/4.9/include/arm_neon.h ****   return (uint16x8_t)__builtin_neon_vhaddv8hi ((int16x8_t) __a, (int16x8_t) __b, 0);
 701:/usr/lib/gcc/arm-linux-gnueabihf/4.9/include/arm_neon.h **** }
 702:/usr/lib/gcc/arm-linux-gnueabihf/4.9/include/arm_neon.h **** 
 703:/usr/lib/gcc/arm-linux-gnueabihf/4.9/include/arm_neon.h **** __extension__ static __inline uint32x4_t __attribute__ ((__always_inline__))
 704:/usr/lib/gcc/arm-linux-gnueabihf/4.9/include/arm_neon.h **** vhaddq_u32 (uint32x4_t __a, uint32x4_t __b)
 705:/usr/lib/gcc/arm-linux-gnueabihf/4.9/include/arm_neon.h **** {
 706:/usr/lib/gcc/arm-linux-gnueabihf/4.9/include/arm_neon.h ****   return (uint32x4_t)__builtin_neon_vhaddv4si ((int32x4_t) __a, (int32x4_t) __b, 0);
 707:/usr/lib/gcc/arm-linux-gnueabihf/4.9/include/arm_neon.h **** }
 708:/usr/lib/gcc/arm-linux-gnueabihf/4.9/include/arm_neon.h **** 
 709:/usr/lib/gcc/arm-linux-gnueabihf/4.9/include/arm_neon.h **** __extension__ static __inline int8x8_t __attribute__ ((__always_inline__))
 710:/usr/lib/gcc/arm-linux-gnueabihf/4.9/include/arm_neon.h **** vrhadd_s8 (int8x8_t __a, int8x8_t __b)
 711:/usr/lib/gcc/arm-linux-gnueabihf/4.9/include/arm_neon.h **** {
 712:/usr/lib/gcc/arm-linux-gnueabihf/4.9/include/arm_neon.h ****   return (int8x8_t)__builtin_neon_vhaddv8qi (__a, __b, 5);
 713:/usr/lib/gcc/arm-linux-gnueabihf/4.9/include/arm_neon.h **** }
 714:/usr/lib/gcc/arm-linux-gnueabihf/4.9/include/arm_neon.h **** 
 715:/usr/lib/gcc/arm-linux-gnueabihf/4.9/include/arm_neon.h **** __extension__ static __inline int16x4_t __attribute__ ((__always_inline__))
 716:/usr/lib/gcc/arm-linux-gnueabihf/4.9/include/arm_neon.h **** vrhadd_s16 (int16x4_t __a, int16x4_t __b)
 717:/usr/lib/gcc/arm-linux-gnueabihf/4.9/include/arm_neon.h **** {
 718:/usr/lib/gcc/arm-linux-gnueabihf/4.9/include/arm_neon.h ****   return (int16x4_t)__builtin_neon_vhaddv4hi (__a, __b, 5);
 719:/usr/lib/gcc/arm-linux-gnueabihf/4.9/include/arm_neon.h **** }
 720:/usr/lib/gcc/arm-linux-gnueabihf/4.9/include/arm_neon.h **** 
 721:/usr/lib/gcc/arm-linux-gnueabihf/4.9/include/arm_neon.h **** __extension__ static __inline int32x2_t __attribute__ ((__always_inline__))
 722:/usr/lib/gcc/arm-linux-gnueabihf/4.9/include/arm_neon.h **** vrhadd_s32 (int32x2_t __a, int32x2_t __b)
 723:/usr/lib/gcc/arm-linux-gnueabihf/4.9/include/arm_neon.h **** {
 724:/usr/lib/gcc/arm-linux-gnueabihf/4.9/include/arm_neon.h ****   return (int32x2_t)__builtin_neon_vhaddv2si (__a, __b, 5);
 725:/usr/lib/gcc/arm-linux-gnueabihf/4.9/include/arm_neon.h **** }
 726:/usr/lib/gcc/arm-linux-gnueabihf/4.9/include/arm_neon.h **** 
 727:/usr/lib/gcc/arm-linux-gnueabihf/4.9/include/arm_neon.h **** __extension__ static __inline uint8x8_t __attribute__ ((__always_inline__))
 728:/usr/lib/gcc/arm-linux-gnueabihf/4.9/include/arm_neon.h **** vrhadd_u8 (uint8x8_t __a, uint8x8_t __b)
 729:/usr/lib/gcc/arm-linux-gnueabihf/4.9/include/arm_neon.h **** {
 730:/usr/lib/gcc/arm-linux-gnueabihf/4.9/include/arm_neon.h ****   return (uint8x8_t)__builtin_neon_vhaddv8qi ((int8x8_t) __a, (int8x8_t) __b, 4);
 731:/usr/lib/gcc/arm-linux-gnueabihf/4.9/include/arm_neon.h **** }
 732:/usr/lib/gcc/arm-linux-gnueabihf/4.9/include/arm_neon.h **** 
 733:/usr/lib/gcc/arm-linux-gnueabihf/4.9/include/arm_neon.h **** __extension__ static __inline uint16x4_t __attribute__ ((__always_inline__))
 734:/usr/lib/gcc/arm-linux-gnueabihf/4.9/include/arm_neon.h **** vrhadd_u16 (uint16x4_t __a, uint16x4_t __b)
 735:/usr/lib/gcc/arm-linux-gnueabihf/4.9/include/arm_neon.h **** {
 736:/usr/lib/gcc/arm-linux-gnueabihf/4.9/include/arm_neon.h ****   return (uint16x4_t)__builtin_neon_vhaddv4hi ((int16x4_t) __a, (int16x4_t) __b, 4);
 737:/usr/lib/gcc/arm-linux-gnueabihf/4.9/include/arm_neon.h **** }
 738:/usr/lib/gcc/arm-linux-gnueabihf/4.9/include/arm_neon.h **** 
 739:/usr/lib/gcc/arm-linux-gnueabihf/4.9/include/arm_neon.h **** __extension__ static __inline uint32x2_t __attribute__ ((__always_inline__))
 740:/usr/lib/gcc/arm-linux-gnueabihf/4.9/include/arm_neon.h **** vrhadd_u32 (uint32x2_t __a, uint32x2_t __b)
 741:/usr/lib/gcc/arm-linux-gnueabihf/4.9/include/arm_neon.h **** {
 742:/usr/lib/gcc/arm-linux-gnueabihf/4.9/include/arm_neon.h ****   return (uint32x2_t)__builtin_neon_vhaddv2si ((int32x2_t) __a, (int32x2_t) __b, 4);
 743:/usr/lib/gcc/arm-linux-gnueabihf/4.9/include/arm_neon.h **** }
 744:/usr/lib/gcc/arm-linux-gnueabihf/4.9/include/arm_neon.h **** 
 745:/usr/lib/gcc/arm-linux-gnueabihf/4.9/include/arm_neon.h **** __extension__ static __inline int8x16_t __attribute__ ((__always_inline__))
 746:/usr/lib/gcc/arm-linux-gnueabihf/4.9/include/arm_neon.h **** vrhaddq_s8 (int8x16_t __a, int8x16_t __b)
 747:/usr/lib/gcc/arm-linux-gnueabihf/4.9/include/arm_neon.h **** {
 748:/usr/lib/gcc/arm-linux-gnueabihf/4.9/include/arm_neon.h ****   return (int8x16_t)__builtin_neon_vhaddv16qi (__a, __b, 5);
 749:/usr/lib/gcc/arm-linux-gnueabihf/4.9/include/arm_neon.h **** }
 750:/usr/lib/gcc/arm-linux-gnueabihf/4.9/include/arm_neon.h **** 
 751:/usr/lib/gcc/arm-linux-gnueabihf/4.9/include/arm_neon.h **** __extension__ static __inline int16x8_t __attribute__ ((__always_inline__))
 752:/usr/lib/gcc/arm-linux-gnueabihf/4.9/include/arm_neon.h **** vrhaddq_s16 (int16x8_t __a, int16x8_t __b)
 753:/usr/lib/gcc/arm-linux-gnueabihf/4.9/include/arm_neon.h **** {
 754:/usr/lib/gcc/arm-linux-gnueabihf/4.9/include/arm_neon.h ****   return (int16x8_t)__builtin_neon_vhaddv8hi (__a, __b, 5);
 755:/usr/lib/gcc/arm-linux-gnueabihf/4.9/include/arm_neon.h **** }
 756:/usr/lib/gcc/arm-linux-gnueabihf/4.9/include/arm_neon.h **** 
 757:/usr/lib/gcc/arm-linux-gnueabihf/4.9/include/arm_neon.h **** __extension__ static __inline int32x4_t __attribute__ ((__always_inline__))
 758:/usr/lib/gcc/arm-linux-gnueabihf/4.9/include/arm_neon.h **** vrhaddq_s32 (int32x4_t __a, int32x4_t __b)
 759:/usr/lib/gcc/arm-linux-gnueabihf/4.9/include/arm_neon.h **** {
 760:/usr/lib/gcc/arm-linux-gnueabihf/4.9/include/arm_neon.h ****   return (int32x4_t)__builtin_neon_vhaddv4si (__a, __b, 5);
 761:/usr/lib/gcc/arm-linux-gnueabihf/4.9/include/arm_neon.h **** }
 762:/usr/lib/gcc/arm-linux-gnueabihf/4.9/include/arm_neon.h **** 
 763:/usr/lib/gcc/arm-linux-gnueabihf/4.9/include/arm_neon.h **** __extension__ static __inline uint8x16_t __attribute__ ((__always_inline__))
 764:/usr/lib/gcc/arm-linux-gnueabihf/4.9/include/arm_neon.h **** vrhaddq_u8 (uint8x16_t __a, uint8x16_t __b)
 765:/usr/lib/gcc/arm-linux-gnueabihf/4.9/include/arm_neon.h **** {
 766:/usr/lib/gcc/arm-linux-gnueabihf/4.9/include/arm_neon.h ****   return (uint8x16_t)__builtin_neon_vhaddv16qi ((int8x16_t) __a, (int8x16_t) __b, 4);
 767:/usr/lib/gcc/arm-linux-gnueabihf/4.9/include/arm_neon.h **** }
 768:/usr/lib/gcc/arm-linux-gnueabihf/4.9/include/arm_neon.h **** 
 769:/usr/lib/gcc/arm-linux-gnueabihf/4.9/include/arm_neon.h **** __extension__ static __inline uint16x8_t __attribute__ ((__always_inline__))
 770:/usr/lib/gcc/arm-linux-gnueabihf/4.9/include/arm_neon.h **** vrhaddq_u16 (uint16x8_t __a, uint16x8_t __b)
 771:/usr/lib/gcc/arm-linux-gnueabihf/4.9/include/arm_neon.h **** {
 772:/usr/lib/gcc/arm-linux-gnueabihf/4.9/include/arm_neon.h ****   return (uint16x8_t)__builtin_neon_vhaddv8hi ((int16x8_t) __a, (int16x8_t) __b, 4);
 773:/usr/lib/gcc/arm-linux-gnueabihf/4.9/include/arm_neon.h **** }
 774:/usr/lib/gcc/arm-linux-gnueabihf/4.9/include/arm_neon.h **** 
 775:/usr/lib/gcc/arm-linux-gnueabihf/4.9/include/arm_neon.h **** __extension__ static __inline uint32x4_t __attribute__ ((__always_inline__))
 776:/usr/lib/gcc/arm-linux-gnueabihf/4.9/include/arm_neon.h **** vrhaddq_u32 (uint32x4_t __a, uint32x4_t __b)
 777:/usr/lib/gcc/arm-linux-gnueabihf/4.9/include/arm_neon.h **** {
 778:/usr/lib/gcc/arm-linux-gnueabihf/4.9/include/arm_neon.h ****   return (uint32x4_t)__builtin_neon_vhaddv4si ((int32x4_t) __a, (int32x4_t) __b, 4);
 779:/usr/lib/gcc/arm-linux-gnueabihf/4.9/include/arm_neon.h **** }
 780:/usr/lib/gcc/arm-linux-gnueabihf/4.9/include/arm_neon.h **** 
 781:/usr/lib/gcc/arm-linux-gnueabihf/4.9/include/arm_neon.h **** __extension__ static __inline int8x8_t __attribute__ ((__always_inline__))
 782:/usr/lib/gcc/arm-linux-gnueabihf/4.9/include/arm_neon.h **** vqadd_s8 (int8x8_t __a, int8x8_t __b)
 783:/usr/lib/gcc/arm-linux-gnueabihf/4.9/include/arm_neon.h **** {
 784:/usr/lib/gcc/arm-linux-gnueabihf/4.9/include/arm_neon.h ****   return (int8x8_t)__builtin_neon_vqaddv8qi (__a, __b, 1);
 785:/usr/lib/gcc/arm-linux-gnueabihf/4.9/include/arm_neon.h **** }
 786:/usr/lib/gcc/arm-linux-gnueabihf/4.9/include/arm_neon.h **** 
 787:/usr/lib/gcc/arm-linux-gnueabihf/4.9/include/arm_neon.h **** __extension__ static __inline int16x4_t __attribute__ ((__always_inline__))
 788:/usr/lib/gcc/arm-linux-gnueabihf/4.9/include/arm_neon.h **** vqadd_s16 (int16x4_t __a, int16x4_t __b)
 789:/usr/lib/gcc/arm-linux-gnueabihf/4.9/include/arm_neon.h **** {
 790:/usr/lib/gcc/arm-linux-gnueabihf/4.9/include/arm_neon.h ****   return (int16x4_t)__builtin_neon_vqaddv4hi (__a, __b, 1);
 791:/usr/lib/gcc/arm-linux-gnueabihf/4.9/include/arm_neon.h **** }
 792:/usr/lib/gcc/arm-linux-gnueabihf/4.9/include/arm_neon.h **** 
 793:/usr/lib/gcc/arm-linux-gnueabihf/4.9/include/arm_neon.h **** __extension__ static __inline int32x2_t __attribute__ ((__always_inline__))
 794:/usr/lib/gcc/arm-linux-gnueabihf/4.9/include/arm_neon.h **** vqadd_s32 (int32x2_t __a, int32x2_t __b)
 795:/usr/lib/gcc/arm-linux-gnueabihf/4.9/include/arm_neon.h **** {
 796:/usr/lib/gcc/arm-linux-gnueabihf/4.9/include/arm_neon.h ****   return (int32x2_t)__builtin_neon_vqaddv2si (__a, __b, 1);
 797:/usr/lib/gcc/arm-linux-gnueabihf/4.9/include/arm_neon.h **** }
 798:/usr/lib/gcc/arm-linux-gnueabihf/4.9/include/arm_neon.h **** 
 799:/usr/lib/gcc/arm-linux-gnueabihf/4.9/include/arm_neon.h **** __extension__ static __inline int64x1_t __attribute__ ((__always_inline__))
 800:/usr/lib/gcc/arm-linux-gnueabihf/4.9/include/arm_neon.h **** vqadd_s64 (int64x1_t __a, int64x1_t __b)
 801:/usr/lib/gcc/arm-linux-gnueabihf/4.9/include/arm_neon.h **** {
 802:/usr/lib/gcc/arm-linux-gnueabihf/4.9/include/arm_neon.h ****   return (int64x1_t)__builtin_neon_vqadddi (__a, __b, 1);
 803:/usr/lib/gcc/arm-linux-gnueabihf/4.9/include/arm_neon.h **** }
 804:/usr/lib/gcc/arm-linux-gnueabihf/4.9/include/arm_neon.h **** 
 805:/usr/lib/gcc/arm-linux-gnueabihf/4.9/include/arm_neon.h **** __extension__ static __inline uint8x8_t __attribute__ ((__always_inline__))
 806:/usr/lib/gcc/arm-linux-gnueabihf/4.9/include/arm_neon.h **** vqadd_u8 (uint8x8_t __a, uint8x8_t __b)
 807:/usr/lib/gcc/arm-linux-gnueabihf/4.9/include/arm_neon.h **** {
 808:/usr/lib/gcc/arm-linux-gnueabihf/4.9/include/arm_neon.h ****   return (uint8x8_t)__builtin_neon_vqaddv8qi ((int8x8_t) __a, (int8x8_t) __b, 0);
 809:/usr/lib/gcc/arm-linux-gnueabihf/4.9/include/arm_neon.h **** }
 810:/usr/lib/gcc/arm-linux-gnueabihf/4.9/include/arm_neon.h **** 
 811:/usr/lib/gcc/arm-linux-gnueabihf/4.9/include/arm_neon.h **** __extension__ static __inline uint16x4_t __attribute__ ((__always_inline__))
 812:/usr/lib/gcc/arm-linux-gnueabihf/4.9/include/arm_neon.h **** vqadd_u16 (uint16x4_t __a, uint16x4_t __b)
 813:/usr/lib/gcc/arm-linux-gnueabihf/4.9/include/arm_neon.h **** {
 814:/usr/lib/gcc/arm-linux-gnueabihf/4.9/include/arm_neon.h ****   return (uint16x4_t)__builtin_neon_vqaddv4hi ((int16x4_t) __a, (int16x4_t) __b, 0);
 815:/usr/lib/gcc/arm-linux-gnueabihf/4.9/include/arm_neon.h **** }
 816:/usr/lib/gcc/arm-linux-gnueabihf/4.9/include/arm_neon.h **** 
 817:/usr/lib/gcc/arm-linux-gnueabihf/4.9/include/arm_neon.h **** __extension__ static __inline uint32x2_t __attribute__ ((__always_inline__))
 818:/usr/lib/gcc/arm-linux-gnueabihf/4.9/include/arm_neon.h **** vqadd_u32 (uint32x2_t __a, uint32x2_t __b)
 819:/usr/lib/gcc/arm-linux-gnueabihf/4.9/include/arm_neon.h **** {
 820:/usr/lib/gcc/arm-linux-gnueabihf/4.9/include/arm_neon.h ****   return (uint32x2_t)__builtin_neon_vqaddv2si ((int32x2_t) __a, (int32x2_t) __b, 0);
 821:/usr/lib/gcc/arm-linux-gnueabihf/4.9/include/arm_neon.h **** }
 822:/usr/lib/gcc/arm-linux-gnueabihf/4.9/include/arm_neon.h **** 
 823:/usr/lib/gcc/arm-linux-gnueabihf/4.9/include/arm_neon.h **** __extension__ static __inline uint64x1_t __attribute__ ((__always_inline__))
 824:/usr/lib/gcc/arm-linux-gnueabihf/4.9/include/arm_neon.h **** vqadd_u64 (uint64x1_t __a, uint64x1_t __b)
 825:/usr/lib/gcc/arm-linux-gnueabihf/4.9/include/arm_neon.h **** {
 826:/usr/lib/gcc/arm-linux-gnueabihf/4.9/include/arm_neon.h ****   return (uint64x1_t)__builtin_neon_vqadddi ((int64x1_t) __a, (int64x1_t) __b, 0);
 827:/usr/lib/gcc/arm-linux-gnueabihf/4.9/include/arm_neon.h **** }
 828:/usr/lib/gcc/arm-linux-gnueabihf/4.9/include/arm_neon.h **** 
 829:/usr/lib/gcc/arm-linux-gnueabihf/4.9/include/arm_neon.h **** __extension__ static __inline int8x16_t __attribute__ ((__always_inline__))
 830:/usr/lib/gcc/arm-linux-gnueabihf/4.9/include/arm_neon.h **** vqaddq_s8 (int8x16_t __a, int8x16_t __b)
 831:/usr/lib/gcc/arm-linux-gnueabihf/4.9/include/arm_neon.h **** {
 832:/usr/lib/gcc/arm-linux-gnueabihf/4.9/include/arm_neon.h ****   return (int8x16_t)__builtin_neon_vqaddv16qi (__a, __b, 1);
 833:/usr/lib/gcc/arm-linux-gnueabihf/4.9/include/arm_neon.h **** }
 834:/usr/lib/gcc/arm-linux-gnueabihf/4.9/include/arm_neon.h **** 
 835:/usr/lib/gcc/arm-linux-gnueabihf/4.9/include/arm_neon.h **** __extension__ static __inline int16x8_t __attribute__ ((__always_inline__))
 836:/usr/lib/gcc/arm-linux-gnueabihf/4.9/include/arm_neon.h **** vqaddq_s16 (int16x8_t __a, int16x8_t __b)
 837:/usr/lib/gcc/arm-linux-gnueabihf/4.9/include/arm_neon.h **** {
 838:/usr/lib/gcc/arm-linux-gnueabihf/4.9/include/arm_neon.h ****   return (int16x8_t)__builtin_neon_vqaddv8hi (__a, __b, 1);
 839:/usr/lib/gcc/arm-linux-gnueabihf/4.9/include/arm_neon.h **** }
 840:/usr/lib/gcc/arm-linux-gnueabihf/4.9/include/arm_neon.h **** 
 841:/usr/lib/gcc/arm-linux-gnueabihf/4.9/include/arm_neon.h **** __extension__ static __inline int32x4_t __attribute__ ((__always_inline__))
 842:/usr/lib/gcc/arm-linux-gnueabihf/4.9/include/arm_neon.h **** vqaddq_s32 (int32x4_t __a, int32x4_t __b)
 843:/usr/lib/gcc/arm-linux-gnueabihf/4.9/include/arm_neon.h **** {
 844:/usr/lib/gcc/arm-linux-gnueabihf/4.9/include/arm_neon.h ****   return (int32x4_t)__builtin_neon_vqaddv4si (__a, __b, 1);
 845:/usr/lib/gcc/arm-linux-gnueabihf/4.9/include/arm_neon.h **** }
 846:/usr/lib/gcc/arm-linux-gnueabihf/4.9/include/arm_neon.h **** 
 847:/usr/lib/gcc/arm-linux-gnueabihf/4.9/include/arm_neon.h **** __extension__ static __inline int64x2_t __attribute__ ((__always_inline__))
 848:/usr/lib/gcc/arm-linux-gnueabihf/4.9/include/arm_neon.h **** vqaddq_s64 (int64x2_t __a, int64x2_t __b)
 849:/usr/lib/gcc/arm-linux-gnueabihf/4.9/include/arm_neon.h **** {
 850:/usr/lib/gcc/arm-linux-gnueabihf/4.9/include/arm_neon.h ****   return (int64x2_t)__builtin_neon_vqaddv2di (__a, __b, 1);
 851:/usr/lib/gcc/arm-linux-gnueabihf/4.9/include/arm_neon.h **** }
 852:/usr/lib/gcc/arm-linux-gnueabihf/4.9/include/arm_neon.h **** 
 853:/usr/lib/gcc/arm-linux-gnueabihf/4.9/include/arm_neon.h **** __extension__ static __inline uint8x16_t __attribute__ ((__always_inline__))
 854:/usr/lib/gcc/arm-linux-gnueabihf/4.9/include/arm_neon.h **** vqaddq_u8 (uint8x16_t __a, uint8x16_t __b)
 855:/usr/lib/gcc/arm-linux-gnueabihf/4.9/include/arm_neon.h **** {
 856:/usr/lib/gcc/arm-linux-gnueabihf/4.9/include/arm_neon.h ****   return (uint8x16_t)__builtin_neon_vqaddv16qi ((int8x16_t) __a, (int8x16_t) __b, 0);
 857:/usr/lib/gcc/arm-linux-gnueabihf/4.9/include/arm_neon.h **** }
 858:/usr/lib/gcc/arm-linux-gnueabihf/4.9/include/arm_neon.h **** 
 859:/usr/lib/gcc/arm-linux-gnueabihf/4.9/include/arm_neon.h **** __extension__ static __inline uint16x8_t __attribute__ ((__always_inline__))
 860:/usr/lib/gcc/arm-linux-gnueabihf/4.9/include/arm_neon.h **** vqaddq_u16 (uint16x8_t __a, uint16x8_t __b)
 861:/usr/lib/gcc/arm-linux-gnueabihf/4.9/include/arm_neon.h **** {
 862:/usr/lib/gcc/arm-linux-gnueabihf/4.9/include/arm_neon.h ****   return (uint16x8_t)__builtin_neon_vqaddv8hi ((int16x8_t) __a, (int16x8_t) __b, 0);
 863:/usr/lib/gcc/arm-linux-gnueabihf/4.9/include/arm_neon.h **** }
 864:/usr/lib/gcc/arm-linux-gnueabihf/4.9/include/arm_neon.h **** 
 865:/usr/lib/gcc/arm-linux-gnueabihf/4.9/include/arm_neon.h **** __extension__ static __inline uint32x4_t __attribute__ ((__always_inline__))
 866:/usr/lib/gcc/arm-linux-gnueabihf/4.9/include/arm_neon.h **** vqaddq_u32 (uint32x4_t __a, uint32x4_t __b)
 867:/usr/lib/gcc/arm-linux-gnueabihf/4.9/include/arm_neon.h **** {
 868:/usr/lib/gcc/arm-linux-gnueabihf/4.9/include/arm_neon.h ****   return (uint32x4_t)__builtin_neon_vqaddv4si ((int32x4_t) __a, (int32x4_t) __b, 0);
 869:/usr/lib/gcc/arm-linux-gnueabihf/4.9/include/arm_neon.h **** }
 870:/usr/lib/gcc/arm-linux-gnueabihf/4.9/include/arm_neon.h **** 
 871:/usr/lib/gcc/arm-linux-gnueabihf/4.9/include/arm_neon.h **** __extension__ static __inline uint64x2_t __attribute__ ((__always_inline__))
 872:/usr/lib/gcc/arm-linux-gnueabihf/4.9/include/arm_neon.h **** vqaddq_u64 (uint64x2_t __a, uint64x2_t __b)
 873:/usr/lib/gcc/arm-linux-gnueabihf/4.9/include/arm_neon.h **** {
 874:/usr/lib/gcc/arm-linux-gnueabihf/4.9/include/arm_neon.h ****   return (uint64x2_t)__builtin_neon_vqaddv2di ((int64x2_t) __a, (int64x2_t) __b, 0);
 875:/usr/lib/gcc/arm-linux-gnueabihf/4.9/include/arm_neon.h **** }
 876:/usr/lib/gcc/arm-linux-gnueabihf/4.9/include/arm_neon.h **** 
 877:/usr/lib/gcc/arm-linux-gnueabihf/4.9/include/arm_neon.h **** __extension__ static __inline int8x8_t __attribute__ ((__always_inline__))
 878:/usr/lib/gcc/arm-linux-gnueabihf/4.9/include/arm_neon.h **** vaddhn_s16 (int16x8_t __a, int16x8_t __b)
 879:/usr/lib/gcc/arm-linux-gnueabihf/4.9/include/arm_neon.h **** {
 880:/usr/lib/gcc/arm-linux-gnueabihf/4.9/include/arm_neon.h ****   return (int8x8_t)__builtin_neon_vaddhnv8hi (__a, __b, 1);
 881:/usr/lib/gcc/arm-linux-gnueabihf/4.9/include/arm_neon.h **** }
 882:/usr/lib/gcc/arm-linux-gnueabihf/4.9/include/arm_neon.h **** 
 883:/usr/lib/gcc/arm-linux-gnueabihf/4.9/include/arm_neon.h **** __extension__ static __inline int16x4_t __attribute__ ((__always_inline__))
 884:/usr/lib/gcc/arm-linux-gnueabihf/4.9/include/arm_neon.h **** vaddhn_s32 (int32x4_t __a, int32x4_t __b)
 885:/usr/lib/gcc/arm-linux-gnueabihf/4.9/include/arm_neon.h **** {
 886:/usr/lib/gcc/arm-linux-gnueabihf/4.9/include/arm_neon.h ****   return (int16x4_t)__builtin_neon_vaddhnv4si (__a, __b, 1);
 887:/usr/lib/gcc/arm-linux-gnueabihf/4.9/include/arm_neon.h **** }
 888:/usr/lib/gcc/arm-linux-gnueabihf/4.9/include/arm_neon.h **** 
 889:/usr/lib/gcc/arm-linux-gnueabihf/4.9/include/arm_neon.h **** __extension__ static __inline int32x2_t __attribute__ ((__always_inline__))
 890:/usr/lib/gcc/arm-linux-gnueabihf/4.9/include/arm_neon.h **** vaddhn_s64 (int64x2_t __a, int64x2_t __b)
 891:/usr/lib/gcc/arm-linux-gnueabihf/4.9/include/arm_neon.h **** {
 892:/usr/lib/gcc/arm-linux-gnueabihf/4.9/include/arm_neon.h ****   return (int32x2_t)__builtin_neon_vaddhnv2di (__a, __b, 1);
 893:/usr/lib/gcc/arm-linux-gnueabihf/4.9/include/arm_neon.h **** }
 894:/usr/lib/gcc/arm-linux-gnueabihf/4.9/include/arm_neon.h **** 
 895:/usr/lib/gcc/arm-linux-gnueabihf/4.9/include/arm_neon.h **** __extension__ static __inline uint8x8_t __attribute__ ((__always_inline__))
 896:/usr/lib/gcc/arm-linux-gnueabihf/4.9/include/arm_neon.h **** vaddhn_u16 (uint16x8_t __a, uint16x8_t __b)
 897:/usr/lib/gcc/arm-linux-gnueabihf/4.9/include/arm_neon.h **** {
 898:/usr/lib/gcc/arm-linux-gnueabihf/4.9/include/arm_neon.h ****   return (uint8x8_t)__builtin_neon_vaddhnv8hi ((int16x8_t) __a, (int16x8_t) __b, 0);
 899:/usr/lib/gcc/arm-linux-gnueabihf/4.9/include/arm_neon.h **** }
 900:/usr/lib/gcc/arm-linux-gnueabihf/4.9/include/arm_neon.h **** 
 901:/usr/lib/gcc/arm-linux-gnueabihf/4.9/include/arm_neon.h **** __extension__ static __inline uint16x4_t __attribute__ ((__always_inline__))
 902:/usr/lib/gcc/arm-linux-gnueabihf/4.9/include/arm_neon.h **** vaddhn_u32 (uint32x4_t __a, uint32x4_t __b)
 903:/usr/lib/gcc/arm-linux-gnueabihf/4.9/include/arm_neon.h **** {
 904:/usr/lib/gcc/arm-linux-gnueabihf/4.9/include/arm_neon.h ****   return (uint16x4_t)__builtin_neon_vaddhnv4si ((int32x4_t) __a, (int32x4_t) __b, 0);
 905:/usr/lib/gcc/arm-linux-gnueabihf/4.9/include/arm_neon.h **** }
 906:/usr/lib/gcc/arm-linux-gnueabihf/4.9/include/arm_neon.h **** 
 907:/usr/lib/gcc/arm-linux-gnueabihf/4.9/include/arm_neon.h **** __extension__ static __inline uint32x2_t __attribute__ ((__always_inline__))
 908:/usr/lib/gcc/arm-linux-gnueabihf/4.9/include/arm_neon.h **** vaddhn_u64 (uint64x2_t __a, uint64x2_t __b)
 909:/usr/lib/gcc/arm-linux-gnueabihf/4.9/include/arm_neon.h **** {
 910:/usr/lib/gcc/arm-linux-gnueabihf/4.9/include/arm_neon.h ****   return (uint32x2_t)__builtin_neon_vaddhnv2di ((int64x2_t) __a, (int64x2_t) __b, 0);
 911:/usr/lib/gcc/arm-linux-gnueabihf/4.9/include/arm_neon.h **** }
 912:/usr/lib/gcc/arm-linux-gnueabihf/4.9/include/arm_neon.h **** 
 913:/usr/lib/gcc/arm-linux-gnueabihf/4.9/include/arm_neon.h **** __extension__ static __inline int8x8_t __attribute__ ((__always_inline__))
 914:/usr/lib/gcc/arm-linux-gnueabihf/4.9/include/arm_neon.h **** vraddhn_s16 (int16x8_t __a, int16x8_t __b)
 915:/usr/lib/gcc/arm-linux-gnueabihf/4.9/include/arm_neon.h **** {
 916:/usr/lib/gcc/arm-linux-gnueabihf/4.9/include/arm_neon.h ****   return (int8x8_t)__builtin_neon_vaddhnv8hi (__a, __b, 5);
 917:/usr/lib/gcc/arm-linux-gnueabihf/4.9/include/arm_neon.h **** }
 918:/usr/lib/gcc/arm-linux-gnueabihf/4.9/include/arm_neon.h **** 
 919:/usr/lib/gcc/arm-linux-gnueabihf/4.9/include/arm_neon.h **** __extension__ static __inline int16x4_t __attribute__ ((__always_inline__))
 920:/usr/lib/gcc/arm-linux-gnueabihf/4.9/include/arm_neon.h **** vraddhn_s32 (int32x4_t __a, int32x4_t __b)
 921:/usr/lib/gcc/arm-linux-gnueabihf/4.9/include/arm_neon.h **** {
 922:/usr/lib/gcc/arm-linux-gnueabihf/4.9/include/arm_neon.h ****   return (int16x4_t)__builtin_neon_vaddhnv4si (__a, __b, 5);
 923:/usr/lib/gcc/arm-linux-gnueabihf/4.9/include/arm_neon.h **** }
 924:/usr/lib/gcc/arm-linux-gnueabihf/4.9/include/arm_neon.h **** 
 925:/usr/lib/gcc/arm-linux-gnueabihf/4.9/include/arm_neon.h **** __extension__ static __inline int32x2_t __attribute__ ((__always_inline__))
 926:/usr/lib/gcc/arm-linux-gnueabihf/4.9/include/arm_neon.h **** vraddhn_s64 (int64x2_t __a, int64x2_t __b)
 927:/usr/lib/gcc/arm-linux-gnueabihf/4.9/include/arm_neon.h **** {
 928:/usr/lib/gcc/arm-linux-gnueabihf/4.9/include/arm_neon.h ****   return (int32x2_t)__builtin_neon_vaddhnv2di (__a, __b, 5);
 929:/usr/lib/gcc/arm-linux-gnueabihf/4.9/include/arm_neon.h **** }
 930:/usr/lib/gcc/arm-linux-gnueabihf/4.9/include/arm_neon.h **** 
 931:/usr/lib/gcc/arm-linux-gnueabihf/4.9/include/arm_neon.h **** __extension__ static __inline uint8x8_t __attribute__ ((__always_inline__))
 932:/usr/lib/gcc/arm-linux-gnueabihf/4.9/include/arm_neon.h **** vraddhn_u16 (uint16x8_t __a, uint16x8_t __b)
 933:/usr/lib/gcc/arm-linux-gnueabihf/4.9/include/arm_neon.h **** {
 934:/usr/lib/gcc/arm-linux-gnueabihf/4.9/include/arm_neon.h ****   return (uint8x8_t)__builtin_neon_vaddhnv8hi ((int16x8_t) __a, (int16x8_t) __b, 4);
 935:/usr/lib/gcc/arm-linux-gnueabihf/4.9/include/arm_neon.h **** }
 936:/usr/lib/gcc/arm-linux-gnueabihf/4.9/include/arm_neon.h **** 
 937:/usr/lib/gcc/arm-linux-gnueabihf/4.9/include/arm_neon.h **** __extension__ static __inline uint16x4_t __attribute__ ((__always_inline__))
 938:/usr/lib/gcc/arm-linux-gnueabihf/4.9/include/arm_neon.h **** vraddhn_u32 (uint32x4_t __a, uint32x4_t __b)
 939:/usr/lib/gcc/arm-linux-gnueabihf/4.9/include/arm_neon.h **** {
 940:/usr/lib/gcc/arm-linux-gnueabihf/4.9/include/arm_neon.h ****   return (uint16x4_t)__builtin_neon_vaddhnv4si ((int32x4_t) __a, (int32x4_t) __b, 4);
 941:/usr/lib/gcc/arm-linux-gnueabihf/4.9/include/arm_neon.h **** }
 942:/usr/lib/gcc/arm-linux-gnueabihf/4.9/include/arm_neon.h **** 
 943:/usr/lib/gcc/arm-linux-gnueabihf/4.9/include/arm_neon.h **** __extension__ static __inline uint32x2_t __attribute__ ((__always_inline__))
 944:/usr/lib/gcc/arm-linux-gnueabihf/4.9/include/arm_neon.h **** vraddhn_u64 (uint64x2_t __a, uint64x2_t __b)
 945:/usr/lib/gcc/arm-linux-gnueabihf/4.9/include/arm_neon.h **** {
 946:/usr/lib/gcc/arm-linux-gnueabihf/4.9/include/arm_neon.h ****   return (uint32x2_t)__builtin_neon_vaddhnv2di ((int64x2_t) __a, (int64x2_t) __b, 4);
 947:/usr/lib/gcc/arm-linux-gnueabihf/4.9/include/arm_neon.h **** }
 948:/usr/lib/gcc/arm-linux-gnueabihf/4.9/include/arm_neon.h **** 
 949:/usr/lib/gcc/arm-linux-gnueabihf/4.9/include/arm_neon.h **** __extension__ static __inline int8x8_t __attribute__ ((__always_inline__))
 950:/usr/lib/gcc/arm-linux-gnueabihf/4.9/include/arm_neon.h **** vmul_s8 (int8x8_t __a, int8x8_t __b)
 951:/usr/lib/gcc/arm-linux-gnueabihf/4.9/include/arm_neon.h **** {
 952:/usr/lib/gcc/arm-linux-gnueabihf/4.9/include/arm_neon.h ****   return (int8x8_t)__builtin_neon_vmulv8qi (__a, __b, 1);
 953:/usr/lib/gcc/arm-linux-gnueabihf/4.9/include/arm_neon.h **** }
 954:/usr/lib/gcc/arm-linux-gnueabihf/4.9/include/arm_neon.h **** 
 955:/usr/lib/gcc/arm-linux-gnueabihf/4.9/include/arm_neon.h **** __extension__ static __inline int16x4_t __attribute__ ((__always_inline__))
 956:/usr/lib/gcc/arm-linux-gnueabihf/4.9/include/arm_neon.h **** vmul_s16 (int16x4_t __a, int16x4_t __b)
 957:/usr/lib/gcc/arm-linux-gnueabihf/4.9/include/arm_neon.h **** {
 958:/usr/lib/gcc/arm-linux-gnueabihf/4.9/include/arm_neon.h ****   return (int16x4_t)__builtin_neon_vmulv4hi (__a, __b, 1);
 959:/usr/lib/gcc/arm-linux-gnueabihf/4.9/include/arm_neon.h **** }
 960:/usr/lib/gcc/arm-linux-gnueabihf/4.9/include/arm_neon.h **** 
 961:/usr/lib/gcc/arm-linux-gnueabihf/4.9/include/arm_neon.h **** __extension__ static __inline int32x2_t __attribute__ ((__always_inline__))
 962:/usr/lib/gcc/arm-linux-gnueabihf/4.9/include/arm_neon.h **** vmul_s32 (int32x2_t __a, int32x2_t __b)
 963:/usr/lib/gcc/arm-linux-gnueabihf/4.9/include/arm_neon.h **** {
 964:/usr/lib/gcc/arm-linux-gnueabihf/4.9/include/arm_neon.h ****   return (int32x2_t)__builtin_neon_vmulv2si (__a, __b, 1);
 965:/usr/lib/gcc/arm-linux-gnueabihf/4.9/include/arm_neon.h **** }
 966:/usr/lib/gcc/arm-linux-gnueabihf/4.9/include/arm_neon.h **** 
 967:/usr/lib/gcc/arm-linux-gnueabihf/4.9/include/arm_neon.h **** __extension__ static __inline float32x2_t __attribute__ ((__always_inline__))
 968:/usr/lib/gcc/arm-linux-gnueabihf/4.9/include/arm_neon.h **** vmul_f32 (float32x2_t __a, float32x2_t __b)
 969:/usr/lib/gcc/arm-linux-gnueabihf/4.9/include/arm_neon.h **** {
 970:/usr/lib/gcc/arm-linux-gnueabihf/4.9/include/arm_neon.h ****   return (float32x2_t)__builtin_neon_vmulv2sf (__a, __b, 3);
 971:/usr/lib/gcc/arm-linux-gnueabihf/4.9/include/arm_neon.h **** }
 972:/usr/lib/gcc/arm-linux-gnueabihf/4.9/include/arm_neon.h **** 
 973:/usr/lib/gcc/arm-linux-gnueabihf/4.9/include/arm_neon.h **** __extension__ static __inline uint8x8_t __attribute__ ((__always_inline__))
 974:/usr/lib/gcc/arm-linux-gnueabihf/4.9/include/arm_neon.h **** vmul_u8 (uint8x8_t __a, uint8x8_t __b)
 975:/usr/lib/gcc/arm-linux-gnueabihf/4.9/include/arm_neon.h **** {
 976:/usr/lib/gcc/arm-linux-gnueabihf/4.9/include/arm_neon.h ****   return (uint8x8_t)__builtin_neon_vmulv8qi ((int8x8_t) __a, (int8x8_t) __b, 0);
 977:/usr/lib/gcc/arm-linux-gnueabihf/4.9/include/arm_neon.h **** }
 978:/usr/lib/gcc/arm-linux-gnueabihf/4.9/include/arm_neon.h **** 
 979:/usr/lib/gcc/arm-linux-gnueabihf/4.9/include/arm_neon.h **** __extension__ static __inline uint16x4_t __attribute__ ((__always_inline__))
 980:/usr/lib/gcc/arm-linux-gnueabihf/4.9/include/arm_neon.h **** vmul_u16 (uint16x4_t __a, uint16x4_t __b)
 981:/usr/lib/gcc/arm-linux-gnueabihf/4.9/include/arm_neon.h **** {
 982:/usr/lib/gcc/arm-linux-gnueabihf/4.9/include/arm_neon.h ****   return (uint16x4_t)__builtin_neon_vmulv4hi ((int16x4_t) __a, (int16x4_t) __b, 0);
 983:/usr/lib/gcc/arm-linux-gnueabihf/4.9/include/arm_neon.h **** }
 984:/usr/lib/gcc/arm-linux-gnueabihf/4.9/include/arm_neon.h **** 
 985:/usr/lib/gcc/arm-linux-gnueabihf/4.9/include/arm_neon.h **** __extension__ static __inline uint32x2_t __attribute__ ((__always_inline__))
 986:/usr/lib/gcc/arm-linux-gnueabihf/4.9/include/arm_neon.h **** vmul_u32 (uint32x2_t __a, uint32x2_t __b)
 987:/usr/lib/gcc/arm-linux-gnueabihf/4.9/include/arm_neon.h **** {
 988:/usr/lib/gcc/arm-linux-gnueabihf/4.9/include/arm_neon.h ****   return (uint32x2_t)__builtin_neon_vmulv2si ((int32x2_t) __a, (int32x2_t) __b, 0);
 989:/usr/lib/gcc/arm-linux-gnueabihf/4.9/include/arm_neon.h **** }
 990:/usr/lib/gcc/arm-linux-gnueabihf/4.9/include/arm_neon.h **** 
 991:/usr/lib/gcc/arm-linux-gnueabihf/4.9/include/arm_neon.h **** __extension__ static __inline poly8x8_t __attribute__ ((__always_inline__))
 992:/usr/lib/gcc/arm-linux-gnueabihf/4.9/include/arm_neon.h **** vmul_p8 (poly8x8_t __a, poly8x8_t __b)
 993:/usr/lib/gcc/arm-linux-gnueabihf/4.9/include/arm_neon.h **** {
 994:/usr/lib/gcc/arm-linux-gnueabihf/4.9/include/arm_neon.h ****   return (poly8x8_t)__builtin_neon_vmulv8qi ((int8x8_t) __a, (int8x8_t) __b, 2);
 995:/usr/lib/gcc/arm-linux-gnueabihf/4.9/include/arm_neon.h **** }
 996:/usr/lib/gcc/arm-linux-gnueabihf/4.9/include/arm_neon.h **** 
 997:/usr/lib/gcc/arm-linux-gnueabihf/4.9/include/arm_neon.h **** __extension__ static __inline int8x16_t __attribute__ ((__always_inline__))
 998:/usr/lib/gcc/arm-linux-gnueabihf/4.9/include/arm_neon.h **** vmulq_s8 (int8x16_t __a, int8x16_t __b)
 999:/usr/lib/gcc/arm-linux-gnueabihf/4.9/include/arm_neon.h **** {
1000:/usr/lib/gcc/arm-linux-gnueabihf/4.9/include/arm_neon.h ****   return (int8x16_t)__builtin_neon_vmulv16qi (__a, __b, 1);
1001:/usr/lib/gcc/arm-linux-gnueabihf/4.9/include/arm_neon.h **** }
1002:/usr/lib/gcc/arm-linux-gnueabihf/4.9/include/arm_neon.h **** 
1003:/usr/lib/gcc/arm-linux-gnueabihf/4.9/include/arm_neon.h **** __extension__ static __inline int16x8_t __attribute__ ((__always_inline__))
1004:/usr/lib/gcc/arm-linux-gnueabihf/4.9/include/arm_neon.h **** vmulq_s16 (int16x8_t __a, int16x8_t __b)
1005:/usr/lib/gcc/arm-linux-gnueabihf/4.9/include/arm_neon.h **** {
1006:/usr/lib/gcc/arm-linux-gnueabihf/4.9/include/arm_neon.h ****   return (int16x8_t)__builtin_neon_vmulv8hi (__a, __b, 1);
1007:/usr/lib/gcc/arm-linux-gnueabihf/4.9/include/arm_neon.h **** }
1008:/usr/lib/gcc/arm-linux-gnueabihf/4.9/include/arm_neon.h **** 
1009:/usr/lib/gcc/arm-linux-gnueabihf/4.9/include/arm_neon.h **** __extension__ static __inline int32x4_t __attribute__ ((__always_inline__))
1010:/usr/lib/gcc/arm-linux-gnueabihf/4.9/include/arm_neon.h **** vmulq_s32 (int32x4_t __a, int32x4_t __b)
1011:/usr/lib/gcc/arm-linux-gnueabihf/4.9/include/arm_neon.h **** {
1012:/usr/lib/gcc/arm-linux-gnueabihf/4.9/include/arm_neon.h ****   return (int32x4_t)__builtin_neon_vmulv4si (__a, __b, 1);
1013:/usr/lib/gcc/arm-linux-gnueabihf/4.9/include/arm_neon.h **** }
1014:/usr/lib/gcc/arm-linux-gnueabihf/4.9/include/arm_neon.h **** 
1015:/usr/lib/gcc/arm-linux-gnueabihf/4.9/include/arm_neon.h **** __extension__ static __inline float32x4_t __attribute__ ((__always_inline__))
1016:/usr/lib/gcc/arm-linux-gnueabihf/4.9/include/arm_neon.h **** vmulq_f32 (float32x4_t __a, float32x4_t __b)
1017:/usr/lib/gcc/arm-linux-gnueabihf/4.9/include/arm_neon.h **** {
1018:/usr/lib/gcc/arm-linux-gnueabihf/4.9/include/arm_neon.h ****   return (float32x4_t)__builtin_neon_vmulv4sf (__a, __b, 3);
1019:/usr/lib/gcc/arm-linux-gnueabihf/4.9/include/arm_neon.h **** }
1020:/usr/lib/gcc/arm-linux-gnueabihf/4.9/include/arm_neon.h **** 
1021:/usr/lib/gcc/arm-linux-gnueabihf/4.9/include/arm_neon.h **** __extension__ static __inline uint8x16_t __attribute__ ((__always_inline__))
1022:/usr/lib/gcc/arm-linux-gnueabihf/4.9/include/arm_neon.h **** vmulq_u8 (uint8x16_t __a, uint8x16_t __b)
1023:/usr/lib/gcc/arm-linux-gnueabihf/4.9/include/arm_neon.h **** {
1024:/usr/lib/gcc/arm-linux-gnueabihf/4.9/include/arm_neon.h ****   return (uint8x16_t)__builtin_neon_vmulv16qi ((int8x16_t) __a, (int8x16_t) __b, 0);
1025:/usr/lib/gcc/arm-linux-gnueabihf/4.9/include/arm_neon.h **** }
1026:/usr/lib/gcc/arm-linux-gnueabihf/4.9/include/arm_neon.h **** 
1027:/usr/lib/gcc/arm-linux-gnueabihf/4.9/include/arm_neon.h **** __extension__ static __inline uint16x8_t __attribute__ ((__always_inline__))
1028:/usr/lib/gcc/arm-linux-gnueabihf/4.9/include/arm_neon.h **** vmulq_u16 (uint16x8_t __a, uint16x8_t __b)
1029:/usr/lib/gcc/arm-linux-gnueabihf/4.9/include/arm_neon.h **** {
1030:/usr/lib/gcc/arm-linux-gnueabihf/4.9/include/arm_neon.h ****   return (uint16x8_t)__builtin_neon_vmulv8hi ((int16x8_t) __a, (int16x8_t) __b, 0);
1031:/usr/lib/gcc/arm-linux-gnueabihf/4.9/include/arm_neon.h **** }
1032:/usr/lib/gcc/arm-linux-gnueabihf/4.9/include/arm_neon.h **** 
1033:/usr/lib/gcc/arm-linux-gnueabihf/4.9/include/arm_neon.h **** __extension__ static __inline uint32x4_t __attribute__ ((__always_inline__))
1034:/usr/lib/gcc/arm-linux-gnueabihf/4.9/include/arm_neon.h **** vmulq_u32 (uint32x4_t __a, uint32x4_t __b)
1035:/usr/lib/gcc/arm-linux-gnueabihf/4.9/include/arm_neon.h **** {
1036:/usr/lib/gcc/arm-linux-gnueabihf/4.9/include/arm_neon.h ****   return (uint32x4_t)__builtin_neon_vmulv4si ((int32x4_t) __a, (int32x4_t) __b, 0);
1037:/usr/lib/gcc/arm-linux-gnueabihf/4.9/include/arm_neon.h **** }
1038:/usr/lib/gcc/arm-linux-gnueabihf/4.9/include/arm_neon.h **** 
1039:/usr/lib/gcc/arm-linux-gnueabihf/4.9/include/arm_neon.h **** __extension__ static __inline poly8x16_t __attribute__ ((__always_inline__))
1040:/usr/lib/gcc/arm-linux-gnueabihf/4.9/include/arm_neon.h **** vmulq_p8 (poly8x16_t __a, poly8x16_t __b)
1041:/usr/lib/gcc/arm-linux-gnueabihf/4.9/include/arm_neon.h **** {
1042:/usr/lib/gcc/arm-linux-gnueabihf/4.9/include/arm_neon.h ****   return (poly8x16_t)__builtin_neon_vmulv16qi ((int8x16_t) __a, (int8x16_t) __b, 2);
1043:/usr/lib/gcc/arm-linux-gnueabihf/4.9/include/arm_neon.h **** }
1044:/usr/lib/gcc/arm-linux-gnueabihf/4.9/include/arm_neon.h **** 
1045:/usr/lib/gcc/arm-linux-gnueabihf/4.9/include/arm_neon.h **** __extension__ static __inline int16x4_t __attribute__ ((__always_inline__))
1046:/usr/lib/gcc/arm-linux-gnueabihf/4.9/include/arm_neon.h **** vqdmulh_s16 (int16x4_t __a, int16x4_t __b)
1047:/usr/lib/gcc/arm-linux-gnueabihf/4.9/include/arm_neon.h **** {
1048:/usr/lib/gcc/arm-linux-gnueabihf/4.9/include/arm_neon.h ****   return (int16x4_t)__builtin_neon_vqdmulhv4hi (__a, __b, 1);
1049:/usr/lib/gcc/arm-linux-gnueabihf/4.9/include/arm_neon.h **** }
1050:/usr/lib/gcc/arm-linux-gnueabihf/4.9/include/arm_neon.h **** 
1051:/usr/lib/gcc/arm-linux-gnueabihf/4.9/include/arm_neon.h **** __extension__ static __inline int32x2_t __attribute__ ((__always_inline__))
1052:/usr/lib/gcc/arm-linux-gnueabihf/4.9/include/arm_neon.h **** vqdmulh_s32 (int32x2_t __a, int32x2_t __b)
1053:/usr/lib/gcc/arm-linux-gnueabihf/4.9/include/arm_neon.h **** {
1054:/usr/lib/gcc/arm-linux-gnueabihf/4.9/include/arm_neon.h ****   return (int32x2_t)__builtin_neon_vqdmulhv2si (__a, __b, 1);
1055:/usr/lib/gcc/arm-linux-gnueabihf/4.9/include/arm_neon.h **** }
1056:/usr/lib/gcc/arm-linux-gnueabihf/4.9/include/arm_neon.h **** 
1057:/usr/lib/gcc/arm-linux-gnueabihf/4.9/include/arm_neon.h **** __extension__ static __inline int16x8_t __attribute__ ((__always_inline__))
1058:/usr/lib/gcc/arm-linux-gnueabihf/4.9/include/arm_neon.h **** vqdmulhq_s16 (int16x8_t __a, int16x8_t __b)
1059:/usr/lib/gcc/arm-linux-gnueabihf/4.9/include/arm_neon.h **** {
1060:/usr/lib/gcc/arm-linux-gnueabihf/4.9/include/arm_neon.h ****   return (int16x8_t)__builtin_neon_vqdmulhv8hi (__a, __b, 1);
1061:/usr/lib/gcc/arm-linux-gnueabihf/4.9/include/arm_neon.h **** }
1062:/usr/lib/gcc/arm-linux-gnueabihf/4.9/include/arm_neon.h **** 
1063:/usr/lib/gcc/arm-linux-gnueabihf/4.9/include/arm_neon.h **** __extension__ static __inline int32x4_t __attribute__ ((__always_inline__))
1064:/usr/lib/gcc/arm-linux-gnueabihf/4.9/include/arm_neon.h **** vqdmulhq_s32 (int32x4_t __a, int32x4_t __b)
1065:/usr/lib/gcc/arm-linux-gnueabihf/4.9/include/arm_neon.h **** {
1066:/usr/lib/gcc/arm-linux-gnueabihf/4.9/include/arm_neon.h ****   return (int32x4_t)__builtin_neon_vqdmulhv4si (__a, __b, 1);
1067:/usr/lib/gcc/arm-linux-gnueabihf/4.9/include/arm_neon.h **** }
1068:/usr/lib/gcc/arm-linux-gnueabihf/4.9/include/arm_neon.h **** 
1069:/usr/lib/gcc/arm-linux-gnueabihf/4.9/include/arm_neon.h **** __extension__ static __inline int16x4_t __attribute__ ((__always_inline__))
1070:/usr/lib/gcc/arm-linux-gnueabihf/4.9/include/arm_neon.h **** vqrdmulh_s16 (int16x4_t __a, int16x4_t __b)
1071:/usr/lib/gcc/arm-linux-gnueabihf/4.9/include/arm_neon.h **** {
1072:/usr/lib/gcc/arm-linux-gnueabihf/4.9/include/arm_neon.h ****   return (int16x4_t)__builtin_neon_vqdmulhv4hi (__a, __b, 5);
1073:/usr/lib/gcc/arm-linux-gnueabihf/4.9/include/arm_neon.h **** }
1074:/usr/lib/gcc/arm-linux-gnueabihf/4.9/include/arm_neon.h **** 
1075:/usr/lib/gcc/arm-linux-gnueabihf/4.9/include/arm_neon.h **** __extension__ static __inline int32x2_t __attribute__ ((__always_inline__))
1076:/usr/lib/gcc/arm-linux-gnueabihf/4.9/include/arm_neon.h **** vqrdmulh_s32 (int32x2_t __a, int32x2_t __b)
1077:/usr/lib/gcc/arm-linux-gnueabihf/4.9/include/arm_neon.h **** {
1078:/usr/lib/gcc/arm-linux-gnueabihf/4.9/include/arm_neon.h ****   return (int32x2_t)__builtin_neon_vqdmulhv2si (__a, __b, 5);
1079:/usr/lib/gcc/arm-linux-gnueabihf/4.9/include/arm_neon.h **** }
1080:/usr/lib/gcc/arm-linux-gnueabihf/4.9/include/arm_neon.h **** 
1081:/usr/lib/gcc/arm-linux-gnueabihf/4.9/include/arm_neon.h **** __extension__ static __inline int16x8_t __attribute__ ((__always_inline__))
1082:/usr/lib/gcc/arm-linux-gnueabihf/4.9/include/arm_neon.h **** vqrdmulhq_s16 (int16x8_t __a, int16x8_t __b)
1083:/usr/lib/gcc/arm-linux-gnueabihf/4.9/include/arm_neon.h **** {
1084:/usr/lib/gcc/arm-linux-gnueabihf/4.9/include/arm_neon.h ****   return (int16x8_t)__builtin_neon_vqdmulhv8hi (__a, __b, 5);
1085:/usr/lib/gcc/arm-linux-gnueabihf/4.9/include/arm_neon.h **** }
1086:/usr/lib/gcc/arm-linux-gnueabihf/4.9/include/arm_neon.h **** 
1087:/usr/lib/gcc/arm-linux-gnueabihf/4.9/include/arm_neon.h **** __extension__ static __inline int32x4_t __attribute__ ((__always_inline__))
1088:/usr/lib/gcc/arm-linux-gnueabihf/4.9/include/arm_neon.h **** vqrdmulhq_s32 (int32x4_t __a, int32x4_t __b)
1089:/usr/lib/gcc/arm-linux-gnueabihf/4.9/include/arm_neon.h **** {
1090:/usr/lib/gcc/arm-linux-gnueabihf/4.9/include/arm_neon.h ****   return (int32x4_t)__builtin_neon_vqdmulhv4si (__a, __b, 5);
1091:/usr/lib/gcc/arm-linux-gnueabihf/4.9/include/arm_neon.h **** }
1092:/usr/lib/gcc/arm-linux-gnueabihf/4.9/include/arm_neon.h **** 
1093:/usr/lib/gcc/arm-linux-gnueabihf/4.9/include/arm_neon.h **** __extension__ static __inline int16x8_t __attribute__ ((__always_inline__))
1094:/usr/lib/gcc/arm-linux-gnueabihf/4.9/include/arm_neon.h **** vmull_s8 (int8x8_t __a, int8x8_t __b)
1095:/usr/lib/gcc/arm-linux-gnueabihf/4.9/include/arm_neon.h **** {
1096:/usr/lib/gcc/arm-linux-gnueabihf/4.9/include/arm_neon.h ****   return (int16x8_t)__builtin_neon_vmullv8qi (__a, __b, 1);
1097:/usr/lib/gcc/arm-linux-gnueabihf/4.9/include/arm_neon.h **** }
1098:/usr/lib/gcc/arm-linux-gnueabihf/4.9/include/arm_neon.h **** 
1099:/usr/lib/gcc/arm-linux-gnueabihf/4.9/include/arm_neon.h **** __extension__ static __inline int32x4_t __attribute__ ((__always_inline__))
1100:/usr/lib/gcc/arm-linux-gnueabihf/4.9/include/arm_neon.h **** vmull_s16 (int16x4_t __a, int16x4_t __b)
1101:/usr/lib/gcc/arm-linux-gnueabihf/4.9/include/arm_neon.h **** {
1102:/usr/lib/gcc/arm-linux-gnueabihf/4.9/include/arm_neon.h ****   return (int32x4_t)__builtin_neon_vmullv4hi (__a, __b, 1);
1103:/usr/lib/gcc/arm-linux-gnueabihf/4.9/include/arm_neon.h **** }
1104:/usr/lib/gcc/arm-linux-gnueabihf/4.9/include/arm_neon.h **** 
1105:/usr/lib/gcc/arm-linux-gnueabihf/4.9/include/arm_neon.h **** __extension__ static __inline int64x2_t __attribute__ ((__always_inline__))
1106:/usr/lib/gcc/arm-linux-gnueabihf/4.9/include/arm_neon.h **** vmull_s32 (int32x2_t __a, int32x2_t __b)
1107:/usr/lib/gcc/arm-linux-gnueabihf/4.9/include/arm_neon.h **** {
1108:/usr/lib/gcc/arm-linux-gnueabihf/4.9/include/arm_neon.h ****   return (int64x2_t)__builtin_neon_vmullv2si (__a, __b, 1);
1109:/usr/lib/gcc/arm-linux-gnueabihf/4.9/include/arm_neon.h **** }
1110:/usr/lib/gcc/arm-linux-gnueabihf/4.9/include/arm_neon.h **** 
1111:/usr/lib/gcc/arm-linux-gnueabihf/4.9/include/arm_neon.h **** __extension__ static __inline uint16x8_t __attribute__ ((__always_inline__))
1112:/usr/lib/gcc/arm-linux-gnueabihf/4.9/include/arm_neon.h **** vmull_u8 (uint8x8_t __a, uint8x8_t __b)
1113:/usr/lib/gcc/arm-linux-gnueabihf/4.9/include/arm_neon.h **** {
1114:/usr/lib/gcc/arm-linux-gnueabihf/4.9/include/arm_neon.h ****   return (uint16x8_t)__builtin_neon_vmullv8qi ((int8x8_t) __a, (int8x8_t) __b, 0);
1115:/usr/lib/gcc/arm-linux-gnueabihf/4.9/include/arm_neon.h **** }
1116:/usr/lib/gcc/arm-linux-gnueabihf/4.9/include/arm_neon.h **** 
1117:/usr/lib/gcc/arm-linux-gnueabihf/4.9/include/arm_neon.h **** __extension__ static __inline uint32x4_t __attribute__ ((__always_inline__))
1118:/usr/lib/gcc/arm-linux-gnueabihf/4.9/include/arm_neon.h **** vmull_u16 (uint16x4_t __a, uint16x4_t __b)
1119:/usr/lib/gcc/arm-linux-gnueabihf/4.9/include/arm_neon.h **** {
1120:/usr/lib/gcc/arm-linux-gnueabihf/4.9/include/arm_neon.h ****   return (uint32x4_t)__builtin_neon_vmullv4hi ((int16x4_t) __a, (int16x4_t) __b, 0);
1121:/usr/lib/gcc/arm-linux-gnueabihf/4.9/include/arm_neon.h **** }
1122:/usr/lib/gcc/arm-linux-gnueabihf/4.9/include/arm_neon.h **** 
1123:/usr/lib/gcc/arm-linux-gnueabihf/4.9/include/arm_neon.h **** __extension__ static __inline uint64x2_t __attribute__ ((__always_inline__))
1124:/usr/lib/gcc/arm-linux-gnueabihf/4.9/include/arm_neon.h **** vmull_u32 (uint32x2_t __a, uint32x2_t __b)
1125:/usr/lib/gcc/arm-linux-gnueabihf/4.9/include/arm_neon.h **** {
1126:/usr/lib/gcc/arm-linux-gnueabihf/4.9/include/arm_neon.h ****   return (uint64x2_t)__builtin_neon_vmullv2si ((int32x2_t) __a, (int32x2_t) __b, 0);
1127:/usr/lib/gcc/arm-linux-gnueabihf/4.9/include/arm_neon.h **** }
1128:/usr/lib/gcc/arm-linux-gnueabihf/4.9/include/arm_neon.h **** 
1129:/usr/lib/gcc/arm-linux-gnueabihf/4.9/include/arm_neon.h **** __extension__ static __inline poly16x8_t __attribute__ ((__always_inline__))
1130:/usr/lib/gcc/arm-linux-gnueabihf/4.9/include/arm_neon.h **** vmull_p8 (poly8x8_t __a, poly8x8_t __b)
1131:/usr/lib/gcc/arm-linux-gnueabihf/4.9/include/arm_neon.h **** {
1132:/usr/lib/gcc/arm-linux-gnueabihf/4.9/include/arm_neon.h ****   return (poly16x8_t)__builtin_neon_vmullv8qi ((int8x8_t) __a, (int8x8_t) __b, 2);
1133:/usr/lib/gcc/arm-linux-gnueabihf/4.9/include/arm_neon.h **** }
1134:/usr/lib/gcc/arm-linux-gnueabihf/4.9/include/arm_neon.h **** 
1135:/usr/lib/gcc/arm-linux-gnueabihf/4.9/include/arm_neon.h **** __extension__ static __inline int32x4_t __attribute__ ((__always_inline__))
1136:/usr/lib/gcc/arm-linux-gnueabihf/4.9/include/arm_neon.h **** vqdmull_s16 (int16x4_t __a, int16x4_t __b)
1137:/usr/lib/gcc/arm-linux-gnueabihf/4.9/include/arm_neon.h **** {
1138:/usr/lib/gcc/arm-linux-gnueabihf/4.9/include/arm_neon.h ****   return (int32x4_t)__builtin_neon_vqdmullv4hi (__a, __b, 1);
1139:/usr/lib/gcc/arm-linux-gnueabihf/4.9/include/arm_neon.h **** }
1140:/usr/lib/gcc/arm-linux-gnueabihf/4.9/include/arm_neon.h **** 
1141:/usr/lib/gcc/arm-linux-gnueabihf/4.9/include/arm_neon.h **** __extension__ static __inline int64x2_t __attribute__ ((__always_inline__))
1142:/usr/lib/gcc/arm-linux-gnueabihf/4.9/include/arm_neon.h **** vqdmull_s32 (int32x2_t __a, int32x2_t __b)
1143:/usr/lib/gcc/arm-linux-gnueabihf/4.9/include/arm_neon.h **** {
1144:/usr/lib/gcc/arm-linux-gnueabihf/4.9/include/arm_neon.h ****   return (int64x2_t)__builtin_neon_vqdmullv2si (__a, __b, 1);
1145:/usr/lib/gcc/arm-linux-gnueabihf/4.9/include/arm_neon.h **** }
1146:/usr/lib/gcc/arm-linux-gnueabihf/4.9/include/arm_neon.h **** 
1147:/usr/lib/gcc/arm-linux-gnueabihf/4.9/include/arm_neon.h **** __extension__ static __inline int8x8_t __attribute__ ((__always_inline__))
1148:/usr/lib/gcc/arm-linux-gnueabihf/4.9/include/arm_neon.h **** vmla_s8 (int8x8_t __a, int8x8_t __b, int8x8_t __c)
1149:/usr/lib/gcc/arm-linux-gnueabihf/4.9/include/arm_neon.h **** {
1150:/usr/lib/gcc/arm-linux-gnueabihf/4.9/include/arm_neon.h ****   return (int8x8_t)__builtin_neon_vmlav8qi (__a, __b, __c, 1);
1151:/usr/lib/gcc/arm-linux-gnueabihf/4.9/include/arm_neon.h **** }
1152:/usr/lib/gcc/arm-linux-gnueabihf/4.9/include/arm_neon.h **** 
1153:/usr/lib/gcc/arm-linux-gnueabihf/4.9/include/arm_neon.h **** __extension__ static __inline int16x4_t __attribute__ ((__always_inline__))
1154:/usr/lib/gcc/arm-linux-gnueabihf/4.9/include/arm_neon.h **** vmla_s16 (int16x4_t __a, int16x4_t __b, int16x4_t __c)
1155:/usr/lib/gcc/arm-linux-gnueabihf/4.9/include/arm_neon.h **** {
1156:/usr/lib/gcc/arm-linux-gnueabihf/4.9/include/arm_neon.h ****   return (int16x4_t)__builtin_neon_vmlav4hi (__a, __b, __c, 1);
1157:/usr/lib/gcc/arm-linux-gnueabihf/4.9/include/arm_neon.h **** }
1158:/usr/lib/gcc/arm-linux-gnueabihf/4.9/include/arm_neon.h **** 
1159:/usr/lib/gcc/arm-linux-gnueabihf/4.9/include/arm_neon.h **** __extension__ static __inline int32x2_t __attribute__ ((__always_inline__))
1160:/usr/lib/gcc/arm-linux-gnueabihf/4.9/include/arm_neon.h **** vmla_s32 (int32x2_t __a, int32x2_t __b, int32x2_t __c)
1161:/usr/lib/gcc/arm-linux-gnueabihf/4.9/include/arm_neon.h **** {
1162:/usr/lib/gcc/arm-linux-gnueabihf/4.9/include/arm_neon.h ****   return (int32x2_t)__builtin_neon_vmlav2si (__a, __b, __c, 1);
1163:/usr/lib/gcc/arm-linux-gnueabihf/4.9/include/arm_neon.h **** }
1164:/usr/lib/gcc/arm-linux-gnueabihf/4.9/include/arm_neon.h **** 
1165:/usr/lib/gcc/arm-linux-gnueabihf/4.9/include/arm_neon.h **** __extension__ static __inline float32x2_t __attribute__ ((__always_inline__))
1166:/usr/lib/gcc/arm-linux-gnueabihf/4.9/include/arm_neon.h **** vmla_f32 (float32x2_t __a, float32x2_t __b, float32x2_t __c)
1167:/usr/lib/gcc/arm-linux-gnueabihf/4.9/include/arm_neon.h **** {
1168:/usr/lib/gcc/arm-linux-gnueabihf/4.9/include/arm_neon.h ****   return (float32x2_t)__builtin_neon_vmlav2sf (__a, __b, __c, 3);
1169:/usr/lib/gcc/arm-linux-gnueabihf/4.9/include/arm_neon.h **** }
1170:/usr/lib/gcc/arm-linux-gnueabihf/4.9/include/arm_neon.h **** 
1171:/usr/lib/gcc/arm-linux-gnueabihf/4.9/include/arm_neon.h **** __extension__ static __inline uint8x8_t __attribute__ ((__always_inline__))
1172:/usr/lib/gcc/arm-linux-gnueabihf/4.9/include/arm_neon.h **** vmla_u8 (uint8x8_t __a, uint8x8_t __b, uint8x8_t __c)
1173:/usr/lib/gcc/arm-linux-gnueabihf/4.9/include/arm_neon.h **** {
1174:/usr/lib/gcc/arm-linux-gnueabihf/4.9/include/arm_neon.h ****   return (uint8x8_t)__builtin_neon_vmlav8qi ((int8x8_t) __a, (int8x8_t) __b, (int8x8_t) __c, 0);
1175:/usr/lib/gcc/arm-linux-gnueabihf/4.9/include/arm_neon.h **** }
1176:/usr/lib/gcc/arm-linux-gnueabihf/4.9/include/arm_neon.h **** 
1177:/usr/lib/gcc/arm-linux-gnueabihf/4.9/include/arm_neon.h **** __extension__ static __inline uint16x4_t __attribute__ ((__always_inline__))
1178:/usr/lib/gcc/arm-linux-gnueabihf/4.9/include/arm_neon.h **** vmla_u16 (uint16x4_t __a, uint16x4_t __b, uint16x4_t __c)
1179:/usr/lib/gcc/arm-linux-gnueabihf/4.9/include/arm_neon.h **** {
1180:/usr/lib/gcc/arm-linux-gnueabihf/4.9/include/arm_neon.h ****   return (uint16x4_t)__builtin_neon_vmlav4hi ((int16x4_t) __a, (int16x4_t) __b, (int16x4_t) __c, 0)
1181:/usr/lib/gcc/arm-linux-gnueabihf/4.9/include/arm_neon.h **** }
1182:/usr/lib/gcc/arm-linux-gnueabihf/4.9/include/arm_neon.h **** 
1183:/usr/lib/gcc/arm-linux-gnueabihf/4.9/include/arm_neon.h **** __extension__ static __inline uint32x2_t __attribute__ ((__always_inline__))
1184:/usr/lib/gcc/arm-linux-gnueabihf/4.9/include/arm_neon.h **** vmla_u32 (uint32x2_t __a, uint32x2_t __b, uint32x2_t __c)
1185:/usr/lib/gcc/arm-linux-gnueabihf/4.9/include/arm_neon.h **** {
1186:/usr/lib/gcc/arm-linux-gnueabihf/4.9/include/arm_neon.h ****   return (uint32x2_t)__builtin_neon_vmlav2si ((int32x2_t) __a, (int32x2_t) __b, (int32x2_t) __c, 0)
1187:/usr/lib/gcc/arm-linux-gnueabihf/4.9/include/arm_neon.h **** }
1188:/usr/lib/gcc/arm-linux-gnueabihf/4.9/include/arm_neon.h **** 
1189:/usr/lib/gcc/arm-linux-gnueabihf/4.9/include/arm_neon.h **** __extension__ static __inline int8x16_t __attribute__ ((__always_inline__))
1190:/usr/lib/gcc/arm-linux-gnueabihf/4.9/include/arm_neon.h **** vmlaq_s8 (int8x16_t __a, int8x16_t __b, int8x16_t __c)
1191:/usr/lib/gcc/arm-linux-gnueabihf/4.9/include/arm_neon.h **** {
1192:/usr/lib/gcc/arm-linux-gnueabihf/4.9/include/arm_neon.h ****   return (int8x16_t)__builtin_neon_vmlav16qi (__a, __b, __c, 1);
1193:/usr/lib/gcc/arm-linux-gnueabihf/4.9/include/arm_neon.h **** }
1194:/usr/lib/gcc/arm-linux-gnueabihf/4.9/include/arm_neon.h **** 
1195:/usr/lib/gcc/arm-linux-gnueabihf/4.9/include/arm_neon.h **** __extension__ static __inline int16x8_t __attribute__ ((__always_inline__))
1196:/usr/lib/gcc/arm-linux-gnueabihf/4.9/include/arm_neon.h **** vmlaq_s16 (int16x8_t __a, int16x8_t __b, int16x8_t __c)
1197:/usr/lib/gcc/arm-linux-gnueabihf/4.9/include/arm_neon.h **** {
1198:/usr/lib/gcc/arm-linux-gnueabihf/4.9/include/arm_neon.h ****   return (int16x8_t)__builtin_neon_vmlav8hi (__a, __b, __c, 1);
1199:/usr/lib/gcc/arm-linux-gnueabihf/4.9/include/arm_neon.h **** }
1200:/usr/lib/gcc/arm-linux-gnueabihf/4.9/include/arm_neon.h **** 
1201:/usr/lib/gcc/arm-linux-gnueabihf/4.9/include/arm_neon.h **** __extension__ static __inline int32x4_t __attribute__ ((__always_inline__))
1202:/usr/lib/gcc/arm-linux-gnueabihf/4.9/include/arm_neon.h **** vmlaq_s32 (int32x4_t __a, int32x4_t __b, int32x4_t __c)
1203:/usr/lib/gcc/arm-linux-gnueabihf/4.9/include/arm_neon.h **** {
1204:/usr/lib/gcc/arm-linux-gnueabihf/4.9/include/arm_neon.h ****   return (int32x4_t)__builtin_neon_vmlav4si (__a, __b, __c, 1);
1205:/usr/lib/gcc/arm-linux-gnueabihf/4.9/include/arm_neon.h **** }
1206:/usr/lib/gcc/arm-linux-gnueabihf/4.9/include/arm_neon.h **** 
1207:/usr/lib/gcc/arm-linux-gnueabihf/4.9/include/arm_neon.h **** __extension__ static __inline float32x4_t __attribute__ ((__always_inline__))
1208:/usr/lib/gcc/arm-linux-gnueabihf/4.9/include/arm_neon.h **** vmlaq_f32 (float32x4_t __a, float32x4_t __b, float32x4_t __c)
1209:/usr/lib/gcc/arm-linux-gnueabihf/4.9/include/arm_neon.h **** {
1210:/usr/lib/gcc/arm-linux-gnueabihf/4.9/include/arm_neon.h ****   return (float32x4_t)__builtin_neon_vmlav4sf (__a, __b, __c, 3);
1211:/usr/lib/gcc/arm-linux-gnueabihf/4.9/include/arm_neon.h **** }
1212:/usr/lib/gcc/arm-linux-gnueabihf/4.9/include/arm_neon.h **** 
1213:/usr/lib/gcc/arm-linux-gnueabihf/4.9/include/arm_neon.h **** __extension__ static __inline uint8x16_t __attribute__ ((__always_inline__))
1214:/usr/lib/gcc/arm-linux-gnueabihf/4.9/include/arm_neon.h **** vmlaq_u8 (uint8x16_t __a, uint8x16_t __b, uint8x16_t __c)
1215:/usr/lib/gcc/arm-linux-gnueabihf/4.9/include/arm_neon.h **** {
1216:/usr/lib/gcc/arm-linux-gnueabihf/4.9/include/arm_neon.h ****   return (uint8x16_t)__builtin_neon_vmlav16qi ((int8x16_t) __a, (int8x16_t) __b, (int8x16_t) __c, 0
1217:/usr/lib/gcc/arm-linux-gnueabihf/4.9/include/arm_neon.h **** }
1218:/usr/lib/gcc/arm-linux-gnueabihf/4.9/include/arm_neon.h **** 
1219:/usr/lib/gcc/arm-linux-gnueabihf/4.9/include/arm_neon.h **** __extension__ static __inline uint16x8_t __attribute__ ((__always_inline__))
1220:/usr/lib/gcc/arm-linux-gnueabihf/4.9/include/arm_neon.h **** vmlaq_u16 (uint16x8_t __a, uint16x8_t __b, uint16x8_t __c)
1221:/usr/lib/gcc/arm-linux-gnueabihf/4.9/include/arm_neon.h **** {
1222:/usr/lib/gcc/arm-linux-gnueabihf/4.9/include/arm_neon.h ****   return (uint16x8_t)__builtin_neon_vmlav8hi ((int16x8_t) __a, (int16x8_t) __b, (int16x8_t) __c, 0)
1223:/usr/lib/gcc/arm-linux-gnueabihf/4.9/include/arm_neon.h **** }
1224:/usr/lib/gcc/arm-linux-gnueabihf/4.9/include/arm_neon.h **** 
1225:/usr/lib/gcc/arm-linux-gnueabihf/4.9/include/arm_neon.h **** __extension__ static __inline uint32x4_t __attribute__ ((__always_inline__))
1226:/usr/lib/gcc/arm-linux-gnueabihf/4.9/include/arm_neon.h **** vmlaq_u32 (uint32x4_t __a, uint32x4_t __b, uint32x4_t __c)
1227:/usr/lib/gcc/arm-linux-gnueabihf/4.9/include/arm_neon.h **** {
1228:/usr/lib/gcc/arm-linux-gnueabihf/4.9/include/arm_neon.h ****   return (uint32x4_t)__builtin_neon_vmlav4si ((int32x4_t) __a, (int32x4_t) __b, (int32x4_t) __c, 0)
1229:/usr/lib/gcc/arm-linux-gnueabihf/4.9/include/arm_neon.h **** }
1230:/usr/lib/gcc/arm-linux-gnueabihf/4.9/include/arm_neon.h **** 
1231:/usr/lib/gcc/arm-linux-gnueabihf/4.9/include/arm_neon.h **** __extension__ static __inline int16x8_t __attribute__ ((__always_inline__))
1232:/usr/lib/gcc/arm-linux-gnueabihf/4.9/include/arm_neon.h **** vmlal_s8 (int16x8_t __a, int8x8_t __b, int8x8_t __c)
1233:/usr/lib/gcc/arm-linux-gnueabihf/4.9/include/arm_neon.h **** {
1234:/usr/lib/gcc/arm-linux-gnueabihf/4.9/include/arm_neon.h ****   return (int16x8_t)__builtin_neon_vmlalv8qi (__a, __b, __c, 1);
1235:/usr/lib/gcc/arm-linux-gnueabihf/4.9/include/arm_neon.h **** }
1236:/usr/lib/gcc/arm-linux-gnueabihf/4.9/include/arm_neon.h **** 
1237:/usr/lib/gcc/arm-linux-gnueabihf/4.9/include/arm_neon.h **** __extension__ static __inline int32x4_t __attribute__ ((__always_inline__))
1238:/usr/lib/gcc/arm-linux-gnueabihf/4.9/include/arm_neon.h **** vmlal_s16 (int32x4_t __a, int16x4_t __b, int16x4_t __c)
1239:/usr/lib/gcc/arm-linux-gnueabihf/4.9/include/arm_neon.h **** {
1240:/usr/lib/gcc/arm-linux-gnueabihf/4.9/include/arm_neon.h ****   return (int32x4_t)__builtin_neon_vmlalv4hi (__a, __b, __c, 1);
1241:/usr/lib/gcc/arm-linux-gnueabihf/4.9/include/arm_neon.h **** }
1242:/usr/lib/gcc/arm-linux-gnueabihf/4.9/include/arm_neon.h **** 
1243:/usr/lib/gcc/arm-linux-gnueabihf/4.9/include/arm_neon.h **** __extension__ static __inline int64x2_t __attribute__ ((__always_inline__))
1244:/usr/lib/gcc/arm-linux-gnueabihf/4.9/include/arm_neon.h **** vmlal_s32 (int64x2_t __a, int32x2_t __b, int32x2_t __c)
1245:/usr/lib/gcc/arm-linux-gnueabihf/4.9/include/arm_neon.h **** {
1246:/usr/lib/gcc/arm-linux-gnueabihf/4.9/include/arm_neon.h ****   return (int64x2_t)__builtin_neon_vmlalv2si (__a, __b, __c, 1);
1247:/usr/lib/gcc/arm-linux-gnueabihf/4.9/include/arm_neon.h **** }
1248:/usr/lib/gcc/arm-linux-gnueabihf/4.9/include/arm_neon.h **** 
1249:/usr/lib/gcc/arm-linux-gnueabihf/4.9/include/arm_neon.h **** __extension__ static __inline uint16x8_t __attribute__ ((__always_inline__))
1250:/usr/lib/gcc/arm-linux-gnueabihf/4.9/include/arm_neon.h **** vmlal_u8 (uint16x8_t __a, uint8x8_t __b, uint8x8_t __c)
1251:/usr/lib/gcc/arm-linux-gnueabihf/4.9/include/arm_neon.h **** {
1252:/usr/lib/gcc/arm-linux-gnueabihf/4.9/include/arm_neon.h ****   return (uint16x8_t)__builtin_neon_vmlalv8qi ((int16x8_t) __a, (int8x8_t) __b, (int8x8_t) __c, 0);
1253:/usr/lib/gcc/arm-linux-gnueabihf/4.9/include/arm_neon.h **** }
1254:/usr/lib/gcc/arm-linux-gnueabihf/4.9/include/arm_neon.h **** 
1255:/usr/lib/gcc/arm-linux-gnueabihf/4.9/include/arm_neon.h **** __extension__ static __inline uint32x4_t __attribute__ ((__always_inline__))
1256:/usr/lib/gcc/arm-linux-gnueabihf/4.9/include/arm_neon.h **** vmlal_u16 (uint32x4_t __a, uint16x4_t __b, uint16x4_t __c)
1257:/usr/lib/gcc/arm-linux-gnueabihf/4.9/include/arm_neon.h **** {
1258:/usr/lib/gcc/arm-linux-gnueabihf/4.9/include/arm_neon.h ****   return (uint32x4_t)__builtin_neon_vmlalv4hi ((int32x4_t) __a, (int16x4_t) __b, (int16x4_t) __c, 0
1259:/usr/lib/gcc/arm-linux-gnueabihf/4.9/include/arm_neon.h **** }
1260:/usr/lib/gcc/arm-linux-gnueabihf/4.9/include/arm_neon.h **** 
1261:/usr/lib/gcc/arm-linux-gnueabihf/4.9/include/arm_neon.h **** __extension__ static __inline uint64x2_t __attribute__ ((__always_inline__))
1262:/usr/lib/gcc/arm-linux-gnueabihf/4.9/include/arm_neon.h **** vmlal_u32 (uint64x2_t __a, uint32x2_t __b, uint32x2_t __c)
1263:/usr/lib/gcc/arm-linux-gnueabihf/4.9/include/arm_neon.h **** {
1264:/usr/lib/gcc/arm-linux-gnueabihf/4.9/include/arm_neon.h ****   return (uint64x2_t)__builtin_neon_vmlalv2si ((int64x2_t) __a, (int32x2_t) __b, (int32x2_t) __c, 0
1265:/usr/lib/gcc/arm-linux-gnueabihf/4.9/include/arm_neon.h **** }
1266:/usr/lib/gcc/arm-linux-gnueabihf/4.9/include/arm_neon.h **** 
1267:/usr/lib/gcc/arm-linux-gnueabihf/4.9/include/arm_neon.h **** __extension__ static __inline int32x4_t __attribute__ ((__always_inline__))
1268:/usr/lib/gcc/arm-linux-gnueabihf/4.9/include/arm_neon.h **** vqdmlal_s16 (int32x4_t __a, int16x4_t __b, int16x4_t __c)
1269:/usr/lib/gcc/arm-linux-gnueabihf/4.9/include/arm_neon.h **** {
1270:/usr/lib/gcc/arm-linux-gnueabihf/4.9/include/arm_neon.h ****   return (int32x4_t)__builtin_neon_vqdmlalv4hi (__a, __b, __c, 1);
1271:/usr/lib/gcc/arm-linux-gnueabihf/4.9/include/arm_neon.h **** }
1272:/usr/lib/gcc/arm-linux-gnueabihf/4.9/include/arm_neon.h **** 
1273:/usr/lib/gcc/arm-linux-gnueabihf/4.9/include/arm_neon.h **** __extension__ static __inline int64x2_t __attribute__ ((__always_inline__))
1274:/usr/lib/gcc/arm-linux-gnueabihf/4.9/include/arm_neon.h **** vqdmlal_s32 (int64x2_t __a, int32x2_t __b, int32x2_t __c)
1275:/usr/lib/gcc/arm-linux-gnueabihf/4.9/include/arm_neon.h **** {
1276:/usr/lib/gcc/arm-linux-gnueabihf/4.9/include/arm_neon.h ****   return (int64x2_t)__builtin_neon_vqdmlalv2si (__a, __b, __c, 1);
1277:/usr/lib/gcc/arm-linux-gnueabihf/4.9/include/arm_neon.h **** }
1278:/usr/lib/gcc/arm-linux-gnueabihf/4.9/include/arm_neon.h **** 
1279:/usr/lib/gcc/arm-linux-gnueabihf/4.9/include/arm_neon.h **** __extension__ static __inline int8x8_t __attribute__ ((__always_inline__))
1280:/usr/lib/gcc/arm-linux-gnueabihf/4.9/include/arm_neon.h **** vmls_s8 (int8x8_t __a, int8x8_t __b, int8x8_t __c)
1281:/usr/lib/gcc/arm-linux-gnueabihf/4.9/include/arm_neon.h **** {
1282:/usr/lib/gcc/arm-linux-gnueabihf/4.9/include/arm_neon.h ****   return (int8x8_t)__builtin_neon_vmlsv8qi (__a, __b, __c, 1);
1283:/usr/lib/gcc/arm-linux-gnueabihf/4.9/include/arm_neon.h **** }
1284:/usr/lib/gcc/arm-linux-gnueabihf/4.9/include/arm_neon.h **** 
1285:/usr/lib/gcc/arm-linux-gnueabihf/4.9/include/arm_neon.h **** __extension__ static __inline int16x4_t __attribute__ ((__always_inline__))
1286:/usr/lib/gcc/arm-linux-gnueabihf/4.9/include/arm_neon.h **** vmls_s16 (int16x4_t __a, int16x4_t __b, int16x4_t __c)
1287:/usr/lib/gcc/arm-linux-gnueabihf/4.9/include/arm_neon.h **** {
1288:/usr/lib/gcc/arm-linux-gnueabihf/4.9/include/arm_neon.h ****   return (int16x4_t)__builtin_neon_vmlsv4hi (__a, __b, __c, 1);
1289:/usr/lib/gcc/arm-linux-gnueabihf/4.9/include/arm_neon.h **** }
1290:/usr/lib/gcc/arm-linux-gnueabihf/4.9/include/arm_neon.h **** 
1291:/usr/lib/gcc/arm-linux-gnueabihf/4.9/include/arm_neon.h **** __extension__ static __inline int32x2_t __attribute__ ((__always_inline__))
1292:/usr/lib/gcc/arm-linux-gnueabihf/4.9/include/arm_neon.h **** vmls_s32 (int32x2_t __a, int32x2_t __b, int32x2_t __c)
1293:/usr/lib/gcc/arm-linux-gnueabihf/4.9/include/arm_neon.h **** {
1294:/usr/lib/gcc/arm-linux-gnueabihf/4.9/include/arm_neon.h ****   return (int32x2_t)__builtin_neon_vmlsv2si (__a, __b, __c, 1);
1295:/usr/lib/gcc/arm-linux-gnueabihf/4.9/include/arm_neon.h **** }
1296:/usr/lib/gcc/arm-linux-gnueabihf/4.9/include/arm_neon.h **** 
1297:/usr/lib/gcc/arm-linux-gnueabihf/4.9/include/arm_neon.h **** __extension__ static __inline float32x2_t __attribute__ ((__always_inline__))
1298:/usr/lib/gcc/arm-linux-gnueabihf/4.9/include/arm_neon.h **** vmls_f32 (float32x2_t __a, float32x2_t __b, float32x2_t __c)
1299:/usr/lib/gcc/arm-linux-gnueabihf/4.9/include/arm_neon.h **** {
1300:/usr/lib/gcc/arm-linux-gnueabihf/4.9/include/arm_neon.h ****   return (float32x2_t)__builtin_neon_vmlsv2sf (__a, __b, __c, 3);
1301:/usr/lib/gcc/arm-linux-gnueabihf/4.9/include/arm_neon.h **** }
1302:/usr/lib/gcc/arm-linux-gnueabihf/4.9/include/arm_neon.h **** 
1303:/usr/lib/gcc/arm-linux-gnueabihf/4.9/include/arm_neon.h **** __extension__ static __inline uint8x8_t __attribute__ ((__always_inline__))
1304:/usr/lib/gcc/arm-linux-gnueabihf/4.9/include/arm_neon.h **** vmls_u8 (uint8x8_t __a, uint8x8_t __b, uint8x8_t __c)
1305:/usr/lib/gcc/arm-linux-gnueabihf/4.9/include/arm_neon.h **** {
1306:/usr/lib/gcc/arm-linux-gnueabihf/4.9/include/arm_neon.h ****   return (uint8x8_t)__builtin_neon_vmlsv8qi ((int8x8_t) __a, (int8x8_t) __b, (int8x8_t) __c, 0);
1307:/usr/lib/gcc/arm-linux-gnueabihf/4.9/include/arm_neon.h **** }
1308:/usr/lib/gcc/arm-linux-gnueabihf/4.9/include/arm_neon.h **** 
1309:/usr/lib/gcc/arm-linux-gnueabihf/4.9/include/arm_neon.h **** __extension__ static __inline uint16x4_t __attribute__ ((__always_inline__))
1310:/usr/lib/gcc/arm-linux-gnueabihf/4.9/include/arm_neon.h **** vmls_u16 (uint16x4_t __a, uint16x4_t __b, uint16x4_t __c)
1311:/usr/lib/gcc/arm-linux-gnueabihf/4.9/include/arm_neon.h **** {
1312:/usr/lib/gcc/arm-linux-gnueabihf/4.9/include/arm_neon.h ****   return (uint16x4_t)__builtin_neon_vmlsv4hi ((int16x4_t) __a, (int16x4_t) __b, (int16x4_t) __c, 0)
1313:/usr/lib/gcc/arm-linux-gnueabihf/4.9/include/arm_neon.h **** }
1314:/usr/lib/gcc/arm-linux-gnueabihf/4.9/include/arm_neon.h **** 
1315:/usr/lib/gcc/arm-linux-gnueabihf/4.9/include/arm_neon.h **** __extension__ static __inline uint32x2_t __attribute__ ((__always_inline__))
1316:/usr/lib/gcc/arm-linux-gnueabihf/4.9/include/arm_neon.h **** vmls_u32 (uint32x2_t __a, uint32x2_t __b, uint32x2_t __c)
1317:/usr/lib/gcc/arm-linux-gnueabihf/4.9/include/arm_neon.h **** {
1318:/usr/lib/gcc/arm-linux-gnueabihf/4.9/include/arm_neon.h ****   return (uint32x2_t)__builtin_neon_vmlsv2si ((int32x2_t) __a, (int32x2_t) __b, (int32x2_t) __c, 0)
1319:/usr/lib/gcc/arm-linux-gnueabihf/4.9/include/arm_neon.h **** }
1320:/usr/lib/gcc/arm-linux-gnueabihf/4.9/include/arm_neon.h **** 
1321:/usr/lib/gcc/arm-linux-gnueabihf/4.9/include/arm_neon.h **** __extension__ static __inline int8x16_t __attribute__ ((__always_inline__))
1322:/usr/lib/gcc/arm-linux-gnueabihf/4.9/include/arm_neon.h **** vmlsq_s8 (int8x16_t __a, int8x16_t __b, int8x16_t __c)
1323:/usr/lib/gcc/arm-linux-gnueabihf/4.9/include/arm_neon.h **** {
1324:/usr/lib/gcc/arm-linux-gnueabihf/4.9/include/arm_neon.h ****   return (int8x16_t)__builtin_neon_vmlsv16qi (__a, __b, __c, 1);
1325:/usr/lib/gcc/arm-linux-gnueabihf/4.9/include/arm_neon.h **** }
1326:/usr/lib/gcc/arm-linux-gnueabihf/4.9/include/arm_neon.h **** 
1327:/usr/lib/gcc/arm-linux-gnueabihf/4.9/include/arm_neon.h **** __extension__ static __inline int16x8_t __attribute__ ((__always_inline__))
1328:/usr/lib/gcc/arm-linux-gnueabihf/4.9/include/arm_neon.h **** vmlsq_s16 (int16x8_t __a, int16x8_t __b, int16x8_t __c)
1329:/usr/lib/gcc/arm-linux-gnueabihf/4.9/include/arm_neon.h **** {
1330:/usr/lib/gcc/arm-linux-gnueabihf/4.9/include/arm_neon.h ****   return (int16x8_t)__builtin_neon_vmlsv8hi (__a, __b, __c, 1);
1331:/usr/lib/gcc/arm-linux-gnueabihf/4.9/include/arm_neon.h **** }
1332:/usr/lib/gcc/arm-linux-gnueabihf/4.9/include/arm_neon.h **** 
1333:/usr/lib/gcc/arm-linux-gnueabihf/4.9/include/arm_neon.h **** __extension__ static __inline int32x4_t __attribute__ ((__always_inline__))
1334:/usr/lib/gcc/arm-linux-gnueabihf/4.9/include/arm_neon.h **** vmlsq_s32 (int32x4_t __a, int32x4_t __b, int32x4_t __c)
1335:/usr/lib/gcc/arm-linux-gnueabihf/4.9/include/arm_neon.h **** {
1336:/usr/lib/gcc/arm-linux-gnueabihf/4.9/include/arm_neon.h ****   return (int32x4_t)__builtin_neon_vmlsv4si (__a, __b, __c, 1);
1337:/usr/lib/gcc/arm-linux-gnueabihf/4.9/include/arm_neon.h **** }
1338:/usr/lib/gcc/arm-linux-gnueabihf/4.9/include/arm_neon.h **** 
1339:/usr/lib/gcc/arm-linux-gnueabihf/4.9/include/arm_neon.h **** __extension__ static __inline float32x4_t __attribute__ ((__always_inline__))
1340:/usr/lib/gcc/arm-linux-gnueabihf/4.9/include/arm_neon.h **** vmlsq_f32 (float32x4_t __a, float32x4_t __b, float32x4_t __c)
1341:/usr/lib/gcc/arm-linux-gnueabihf/4.9/include/arm_neon.h **** {
1342:/usr/lib/gcc/arm-linux-gnueabihf/4.9/include/arm_neon.h ****   return (float32x4_t)__builtin_neon_vmlsv4sf (__a, __b, __c, 3);
1343:/usr/lib/gcc/arm-linux-gnueabihf/4.9/include/arm_neon.h **** }
1344:/usr/lib/gcc/arm-linux-gnueabihf/4.9/include/arm_neon.h **** 
1345:/usr/lib/gcc/arm-linux-gnueabihf/4.9/include/arm_neon.h **** __extension__ static __inline uint8x16_t __attribute__ ((__always_inline__))
1346:/usr/lib/gcc/arm-linux-gnueabihf/4.9/include/arm_neon.h **** vmlsq_u8 (uint8x16_t __a, uint8x16_t __b, uint8x16_t __c)
1347:/usr/lib/gcc/arm-linux-gnueabihf/4.9/include/arm_neon.h **** {
1348:/usr/lib/gcc/arm-linux-gnueabihf/4.9/include/arm_neon.h ****   return (uint8x16_t)__builtin_neon_vmlsv16qi ((int8x16_t) __a, (int8x16_t) __b, (int8x16_t) __c, 0
1349:/usr/lib/gcc/arm-linux-gnueabihf/4.9/include/arm_neon.h **** }
1350:/usr/lib/gcc/arm-linux-gnueabihf/4.9/include/arm_neon.h **** 
1351:/usr/lib/gcc/arm-linux-gnueabihf/4.9/include/arm_neon.h **** __extension__ static __inline uint16x8_t __attribute__ ((__always_inline__))
1352:/usr/lib/gcc/arm-linux-gnueabihf/4.9/include/arm_neon.h **** vmlsq_u16 (uint16x8_t __a, uint16x8_t __b, uint16x8_t __c)
1353:/usr/lib/gcc/arm-linux-gnueabihf/4.9/include/arm_neon.h **** {
1354:/usr/lib/gcc/arm-linux-gnueabihf/4.9/include/arm_neon.h ****   return (uint16x8_t)__builtin_neon_vmlsv8hi ((int16x8_t) __a, (int16x8_t) __b, (int16x8_t) __c, 0)
1355:/usr/lib/gcc/arm-linux-gnueabihf/4.9/include/arm_neon.h **** }
1356:/usr/lib/gcc/arm-linux-gnueabihf/4.9/include/arm_neon.h **** 
1357:/usr/lib/gcc/arm-linux-gnueabihf/4.9/include/arm_neon.h **** __extension__ static __inline uint32x4_t __attribute__ ((__always_inline__))
1358:/usr/lib/gcc/arm-linux-gnueabihf/4.9/include/arm_neon.h **** vmlsq_u32 (uint32x4_t __a, uint32x4_t __b, uint32x4_t __c)
1359:/usr/lib/gcc/arm-linux-gnueabihf/4.9/include/arm_neon.h **** {
1360:/usr/lib/gcc/arm-linux-gnueabihf/4.9/include/arm_neon.h ****   return (uint32x4_t)__builtin_neon_vmlsv4si ((int32x4_t) __a, (int32x4_t) __b, (int32x4_t) __c, 0)
1361:/usr/lib/gcc/arm-linux-gnueabihf/4.9/include/arm_neon.h **** }
1362:/usr/lib/gcc/arm-linux-gnueabihf/4.9/include/arm_neon.h **** 
1363:/usr/lib/gcc/arm-linux-gnueabihf/4.9/include/arm_neon.h **** __extension__ static __inline int16x8_t __attribute__ ((__always_inline__))
1364:/usr/lib/gcc/arm-linux-gnueabihf/4.9/include/arm_neon.h **** vmlsl_s8 (int16x8_t __a, int8x8_t __b, int8x8_t __c)
1365:/usr/lib/gcc/arm-linux-gnueabihf/4.9/include/arm_neon.h **** {
1366:/usr/lib/gcc/arm-linux-gnueabihf/4.9/include/arm_neon.h ****   return (int16x8_t)__builtin_neon_vmlslv8qi (__a, __b, __c, 1);
1367:/usr/lib/gcc/arm-linux-gnueabihf/4.9/include/arm_neon.h **** }
1368:/usr/lib/gcc/arm-linux-gnueabihf/4.9/include/arm_neon.h **** 
1369:/usr/lib/gcc/arm-linux-gnueabihf/4.9/include/arm_neon.h **** __extension__ static __inline int32x4_t __attribute__ ((__always_inline__))
1370:/usr/lib/gcc/arm-linux-gnueabihf/4.9/include/arm_neon.h **** vmlsl_s16 (int32x4_t __a, int16x4_t __b, int16x4_t __c)
1371:/usr/lib/gcc/arm-linux-gnueabihf/4.9/include/arm_neon.h **** {
1372:/usr/lib/gcc/arm-linux-gnueabihf/4.9/include/arm_neon.h ****   return (int32x4_t)__builtin_neon_vmlslv4hi (__a, __b, __c, 1);
1373:/usr/lib/gcc/arm-linux-gnueabihf/4.9/include/arm_neon.h **** }
1374:/usr/lib/gcc/arm-linux-gnueabihf/4.9/include/arm_neon.h **** 
1375:/usr/lib/gcc/arm-linux-gnueabihf/4.9/include/arm_neon.h **** __extension__ static __inline int64x2_t __attribute__ ((__always_inline__))
1376:/usr/lib/gcc/arm-linux-gnueabihf/4.9/include/arm_neon.h **** vmlsl_s32 (int64x2_t __a, int32x2_t __b, int32x2_t __c)
1377:/usr/lib/gcc/arm-linux-gnueabihf/4.9/include/arm_neon.h **** {
1378:/usr/lib/gcc/arm-linux-gnueabihf/4.9/include/arm_neon.h ****   return (int64x2_t)__builtin_neon_vmlslv2si (__a, __b, __c, 1);
1379:/usr/lib/gcc/arm-linux-gnueabihf/4.9/include/arm_neon.h **** }
1380:/usr/lib/gcc/arm-linux-gnueabihf/4.9/include/arm_neon.h **** 
1381:/usr/lib/gcc/arm-linux-gnueabihf/4.9/include/arm_neon.h **** __extension__ static __inline uint16x8_t __attribute__ ((__always_inline__))
1382:/usr/lib/gcc/arm-linux-gnueabihf/4.9/include/arm_neon.h **** vmlsl_u8 (uint16x8_t __a, uint8x8_t __b, uint8x8_t __c)
1383:/usr/lib/gcc/arm-linux-gnueabihf/4.9/include/arm_neon.h **** {
1384:/usr/lib/gcc/arm-linux-gnueabihf/4.9/include/arm_neon.h ****   return (uint16x8_t)__builtin_neon_vmlslv8qi ((int16x8_t) __a, (int8x8_t) __b, (int8x8_t) __c, 0);
1385:/usr/lib/gcc/arm-linux-gnueabihf/4.9/include/arm_neon.h **** }
1386:/usr/lib/gcc/arm-linux-gnueabihf/4.9/include/arm_neon.h **** 
1387:/usr/lib/gcc/arm-linux-gnueabihf/4.9/include/arm_neon.h **** __extension__ static __inline uint32x4_t __attribute__ ((__always_inline__))
1388:/usr/lib/gcc/arm-linux-gnueabihf/4.9/include/arm_neon.h **** vmlsl_u16 (uint32x4_t __a, uint16x4_t __b, uint16x4_t __c)
1389:/usr/lib/gcc/arm-linux-gnueabihf/4.9/include/arm_neon.h **** {
1390:/usr/lib/gcc/arm-linux-gnueabihf/4.9/include/arm_neon.h ****   return (uint32x4_t)__builtin_neon_vmlslv4hi ((int32x4_t) __a, (int16x4_t) __b, (int16x4_t) __c, 0
1391:/usr/lib/gcc/arm-linux-gnueabihf/4.9/include/arm_neon.h **** }
1392:/usr/lib/gcc/arm-linux-gnueabihf/4.9/include/arm_neon.h **** 
1393:/usr/lib/gcc/arm-linux-gnueabihf/4.9/include/arm_neon.h **** __extension__ static __inline uint64x2_t __attribute__ ((__always_inline__))
1394:/usr/lib/gcc/arm-linux-gnueabihf/4.9/include/arm_neon.h **** vmlsl_u32 (uint64x2_t __a, uint32x2_t __b, uint32x2_t __c)
1395:/usr/lib/gcc/arm-linux-gnueabihf/4.9/include/arm_neon.h **** {
1396:/usr/lib/gcc/arm-linux-gnueabihf/4.9/include/arm_neon.h ****   return (uint64x2_t)__builtin_neon_vmlslv2si ((int64x2_t) __a, (int32x2_t) __b, (int32x2_t) __c, 0
1397:/usr/lib/gcc/arm-linux-gnueabihf/4.9/include/arm_neon.h **** }
1398:/usr/lib/gcc/arm-linux-gnueabihf/4.9/include/arm_neon.h **** 
1399:/usr/lib/gcc/arm-linux-gnueabihf/4.9/include/arm_neon.h **** __extension__ static __inline int32x4_t __attribute__ ((__always_inline__))
1400:/usr/lib/gcc/arm-linux-gnueabihf/4.9/include/arm_neon.h **** vqdmlsl_s16 (int32x4_t __a, int16x4_t __b, int16x4_t __c)
1401:/usr/lib/gcc/arm-linux-gnueabihf/4.9/include/arm_neon.h **** {
1402:/usr/lib/gcc/arm-linux-gnueabihf/4.9/include/arm_neon.h ****   return (int32x4_t)__builtin_neon_vqdmlslv4hi (__a, __b, __c, 1);
1403:/usr/lib/gcc/arm-linux-gnueabihf/4.9/include/arm_neon.h **** }
1404:/usr/lib/gcc/arm-linux-gnueabihf/4.9/include/arm_neon.h **** 
1405:/usr/lib/gcc/arm-linux-gnueabihf/4.9/include/arm_neon.h **** __extension__ static __inline int64x2_t __attribute__ ((__always_inline__))
1406:/usr/lib/gcc/arm-linux-gnueabihf/4.9/include/arm_neon.h **** vqdmlsl_s32 (int64x2_t __a, int32x2_t __b, int32x2_t __c)
1407:/usr/lib/gcc/arm-linux-gnueabihf/4.9/include/arm_neon.h **** {
1408:/usr/lib/gcc/arm-linux-gnueabihf/4.9/include/arm_neon.h ****   return (int64x2_t)__builtin_neon_vqdmlslv2si (__a, __b, __c, 1);
1409:/usr/lib/gcc/arm-linux-gnueabihf/4.9/include/arm_neon.h **** }
1410:/usr/lib/gcc/arm-linux-gnueabihf/4.9/include/arm_neon.h **** 
1411:/usr/lib/gcc/arm-linux-gnueabihf/4.9/include/arm_neon.h **** #ifdef __ARM_FEATURE_FMA
1412:/usr/lib/gcc/arm-linux-gnueabihf/4.9/include/arm_neon.h **** __extension__ static __inline float32x2_t __attribute__ ((__always_inline__))
1413:/usr/lib/gcc/arm-linux-gnueabihf/4.9/include/arm_neon.h **** vfma_f32 (float32x2_t __a, float32x2_t __b, float32x2_t __c)
1414:/usr/lib/gcc/arm-linux-gnueabihf/4.9/include/arm_neon.h **** {
1415:/usr/lib/gcc/arm-linux-gnueabihf/4.9/include/arm_neon.h ****   return (float32x2_t)__builtin_neon_vfmav2sf (__a, __b, __c, 3);
1416:/usr/lib/gcc/arm-linux-gnueabihf/4.9/include/arm_neon.h **** }
1417:/usr/lib/gcc/arm-linux-gnueabihf/4.9/include/arm_neon.h **** 
1418:/usr/lib/gcc/arm-linux-gnueabihf/4.9/include/arm_neon.h **** #endif
1419:/usr/lib/gcc/arm-linux-gnueabihf/4.9/include/arm_neon.h **** #ifdef __ARM_FEATURE_FMA
1420:/usr/lib/gcc/arm-linux-gnueabihf/4.9/include/arm_neon.h **** __extension__ static __inline float32x4_t __attribute__ ((__always_inline__))
1421:/usr/lib/gcc/arm-linux-gnueabihf/4.9/include/arm_neon.h **** vfmaq_f32 (float32x4_t __a, float32x4_t __b, float32x4_t __c)
1422:/usr/lib/gcc/arm-linux-gnueabihf/4.9/include/arm_neon.h **** {
1423:/usr/lib/gcc/arm-linux-gnueabihf/4.9/include/arm_neon.h ****   return (float32x4_t)__builtin_neon_vfmav4sf (__a, __b, __c, 3);
1424:/usr/lib/gcc/arm-linux-gnueabihf/4.9/include/arm_neon.h **** }
1425:/usr/lib/gcc/arm-linux-gnueabihf/4.9/include/arm_neon.h **** 
1426:/usr/lib/gcc/arm-linux-gnueabihf/4.9/include/arm_neon.h **** #endif
1427:/usr/lib/gcc/arm-linux-gnueabihf/4.9/include/arm_neon.h **** #ifdef __ARM_FEATURE_FMA
1428:/usr/lib/gcc/arm-linux-gnueabihf/4.9/include/arm_neon.h **** __extension__ static __inline float32x2_t __attribute__ ((__always_inline__))
1429:/usr/lib/gcc/arm-linux-gnueabihf/4.9/include/arm_neon.h **** vfms_f32 (float32x2_t __a, float32x2_t __b, float32x2_t __c)
1430:/usr/lib/gcc/arm-linux-gnueabihf/4.9/include/arm_neon.h **** {
1431:/usr/lib/gcc/arm-linux-gnueabihf/4.9/include/arm_neon.h ****   return (float32x2_t)__builtin_neon_vfmsv2sf (__a, __b, __c, 3);
1432:/usr/lib/gcc/arm-linux-gnueabihf/4.9/include/arm_neon.h **** }
1433:/usr/lib/gcc/arm-linux-gnueabihf/4.9/include/arm_neon.h **** 
1434:/usr/lib/gcc/arm-linux-gnueabihf/4.9/include/arm_neon.h **** #endif
1435:/usr/lib/gcc/arm-linux-gnueabihf/4.9/include/arm_neon.h **** #ifdef __ARM_FEATURE_FMA
1436:/usr/lib/gcc/arm-linux-gnueabihf/4.9/include/arm_neon.h **** __extension__ static __inline float32x4_t __attribute__ ((__always_inline__))
1437:/usr/lib/gcc/arm-linux-gnueabihf/4.9/include/arm_neon.h **** vfmsq_f32 (float32x4_t __a, float32x4_t __b, float32x4_t __c)
1438:/usr/lib/gcc/arm-linux-gnueabihf/4.9/include/arm_neon.h **** {
1439:/usr/lib/gcc/arm-linux-gnueabihf/4.9/include/arm_neon.h ****   return (float32x4_t)__builtin_neon_vfmsv4sf (__a, __b, __c, 3);
1440:/usr/lib/gcc/arm-linux-gnueabihf/4.9/include/arm_neon.h **** }
1441:/usr/lib/gcc/arm-linux-gnueabihf/4.9/include/arm_neon.h **** 
1442:/usr/lib/gcc/arm-linux-gnueabihf/4.9/include/arm_neon.h **** #endif
1443:/usr/lib/gcc/arm-linux-gnueabihf/4.9/include/arm_neon.h **** #if __ARM_ARCH >= 8
1444:/usr/lib/gcc/arm-linux-gnueabihf/4.9/include/arm_neon.h **** __extension__ static __inline float32x2_t __attribute__ ((__always_inline__))
1445:/usr/lib/gcc/arm-linux-gnueabihf/4.9/include/arm_neon.h **** vrndn_f32 (float32x2_t __a)
1446:/usr/lib/gcc/arm-linux-gnueabihf/4.9/include/arm_neon.h **** {
1447:/usr/lib/gcc/arm-linux-gnueabihf/4.9/include/arm_neon.h ****   return (float32x2_t)__builtin_neon_vrintnv2sf (__a);
1448:/usr/lib/gcc/arm-linux-gnueabihf/4.9/include/arm_neon.h **** }
1449:/usr/lib/gcc/arm-linux-gnueabihf/4.9/include/arm_neon.h **** 
1450:/usr/lib/gcc/arm-linux-gnueabihf/4.9/include/arm_neon.h **** #endif
1451:/usr/lib/gcc/arm-linux-gnueabihf/4.9/include/arm_neon.h **** #if __ARM_ARCH >= 8
1452:/usr/lib/gcc/arm-linux-gnueabihf/4.9/include/arm_neon.h **** __extension__ static __inline float32x4_t __attribute__ ((__always_inline__))
1453:/usr/lib/gcc/arm-linux-gnueabihf/4.9/include/arm_neon.h **** vrndqn_f32 (float32x4_t __a)
1454:/usr/lib/gcc/arm-linux-gnueabihf/4.9/include/arm_neon.h **** {
1455:/usr/lib/gcc/arm-linux-gnueabihf/4.9/include/arm_neon.h ****   return (float32x4_t)__builtin_neon_vrintnv4sf (__a);
1456:/usr/lib/gcc/arm-linux-gnueabihf/4.9/include/arm_neon.h **** }
1457:/usr/lib/gcc/arm-linux-gnueabihf/4.9/include/arm_neon.h **** 
1458:/usr/lib/gcc/arm-linux-gnueabihf/4.9/include/arm_neon.h **** #endif
1459:/usr/lib/gcc/arm-linux-gnueabihf/4.9/include/arm_neon.h **** #if __ARM_ARCH >= 8
1460:/usr/lib/gcc/arm-linux-gnueabihf/4.9/include/arm_neon.h **** __extension__ static __inline float32x2_t __attribute__ ((__always_inline__))
1461:/usr/lib/gcc/arm-linux-gnueabihf/4.9/include/arm_neon.h **** vrnda_f32 (float32x2_t __a)
1462:/usr/lib/gcc/arm-linux-gnueabihf/4.9/include/arm_neon.h **** {
1463:/usr/lib/gcc/arm-linux-gnueabihf/4.9/include/arm_neon.h ****   return (float32x2_t)__builtin_neon_vrintav2sf (__a);
1464:/usr/lib/gcc/arm-linux-gnueabihf/4.9/include/arm_neon.h **** }
1465:/usr/lib/gcc/arm-linux-gnueabihf/4.9/include/arm_neon.h **** 
1466:/usr/lib/gcc/arm-linux-gnueabihf/4.9/include/arm_neon.h **** #endif
1467:/usr/lib/gcc/arm-linux-gnueabihf/4.9/include/arm_neon.h **** #if __ARM_ARCH >= 8
1468:/usr/lib/gcc/arm-linux-gnueabihf/4.9/include/arm_neon.h **** __extension__ static __inline float32x4_t __attribute__ ((__always_inline__))
1469:/usr/lib/gcc/arm-linux-gnueabihf/4.9/include/arm_neon.h **** vrndqa_f32 (float32x4_t __a)
1470:/usr/lib/gcc/arm-linux-gnueabihf/4.9/include/arm_neon.h **** {
1471:/usr/lib/gcc/arm-linux-gnueabihf/4.9/include/arm_neon.h ****   return (float32x4_t)__builtin_neon_vrintav4sf (__a);
1472:/usr/lib/gcc/arm-linux-gnueabihf/4.9/include/arm_neon.h **** }
1473:/usr/lib/gcc/arm-linux-gnueabihf/4.9/include/arm_neon.h **** 
1474:/usr/lib/gcc/arm-linux-gnueabihf/4.9/include/arm_neon.h **** #endif
1475:/usr/lib/gcc/arm-linux-gnueabihf/4.9/include/arm_neon.h **** #if __ARM_ARCH >= 8
1476:/usr/lib/gcc/arm-linux-gnueabihf/4.9/include/arm_neon.h **** __extension__ static __inline float32x2_t __attribute__ ((__always_inline__))
1477:/usr/lib/gcc/arm-linux-gnueabihf/4.9/include/arm_neon.h **** vrndp_f32 (float32x2_t __a)
1478:/usr/lib/gcc/arm-linux-gnueabihf/4.9/include/arm_neon.h **** {
1479:/usr/lib/gcc/arm-linux-gnueabihf/4.9/include/arm_neon.h ****   return (float32x2_t)__builtin_neon_vrintpv2sf (__a);
1480:/usr/lib/gcc/arm-linux-gnueabihf/4.9/include/arm_neon.h **** }
1481:/usr/lib/gcc/arm-linux-gnueabihf/4.9/include/arm_neon.h **** 
1482:/usr/lib/gcc/arm-linux-gnueabihf/4.9/include/arm_neon.h **** #endif
1483:/usr/lib/gcc/arm-linux-gnueabihf/4.9/include/arm_neon.h **** #if __ARM_ARCH >= 8
1484:/usr/lib/gcc/arm-linux-gnueabihf/4.9/include/arm_neon.h **** __extension__ static __inline float32x4_t __attribute__ ((__always_inline__))
1485:/usr/lib/gcc/arm-linux-gnueabihf/4.9/include/arm_neon.h **** vrndqp_f32 (float32x4_t __a)
1486:/usr/lib/gcc/arm-linux-gnueabihf/4.9/include/arm_neon.h **** {
1487:/usr/lib/gcc/arm-linux-gnueabihf/4.9/include/arm_neon.h ****   return (float32x4_t)__builtin_neon_vrintpv4sf (__a);
1488:/usr/lib/gcc/arm-linux-gnueabihf/4.9/include/arm_neon.h **** }
1489:/usr/lib/gcc/arm-linux-gnueabihf/4.9/include/arm_neon.h **** 
1490:/usr/lib/gcc/arm-linux-gnueabihf/4.9/include/arm_neon.h **** #endif
1491:/usr/lib/gcc/arm-linux-gnueabihf/4.9/include/arm_neon.h **** #if __ARM_ARCH >= 8
1492:/usr/lib/gcc/arm-linux-gnueabihf/4.9/include/arm_neon.h **** __extension__ static __inline float32x2_t __attribute__ ((__always_inline__))
1493:/usr/lib/gcc/arm-linux-gnueabihf/4.9/include/arm_neon.h **** vrndm_f32 (float32x2_t __a)
1494:/usr/lib/gcc/arm-linux-gnueabihf/4.9/include/arm_neon.h **** {
1495:/usr/lib/gcc/arm-linux-gnueabihf/4.9/include/arm_neon.h ****   return (float32x2_t)__builtin_neon_vrintmv2sf (__a);
1496:/usr/lib/gcc/arm-linux-gnueabihf/4.9/include/arm_neon.h **** }
1497:/usr/lib/gcc/arm-linux-gnueabihf/4.9/include/arm_neon.h **** 
1498:/usr/lib/gcc/arm-linux-gnueabihf/4.9/include/arm_neon.h **** #endif
1499:/usr/lib/gcc/arm-linux-gnueabihf/4.9/include/arm_neon.h **** #if __ARM_ARCH >= 8
1500:/usr/lib/gcc/arm-linux-gnueabihf/4.9/include/arm_neon.h **** __extension__ static __inline float32x4_t __attribute__ ((__always_inline__))
1501:/usr/lib/gcc/arm-linux-gnueabihf/4.9/include/arm_neon.h **** vrndqm_f32 (float32x4_t __a)
1502:/usr/lib/gcc/arm-linux-gnueabihf/4.9/include/arm_neon.h **** {
1503:/usr/lib/gcc/arm-linux-gnueabihf/4.9/include/arm_neon.h ****   return (float32x4_t)__builtin_neon_vrintmv4sf (__a);
1504:/usr/lib/gcc/arm-linux-gnueabihf/4.9/include/arm_neon.h **** }
1505:/usr/lib/gcc/arm-linux-gnueabihf/4.9/include/arm_neon.h **** 
1506:/usr/lib/gcc/arm-linux-gnueabihf/4.9/include/arm_neon.h **** #endif
1507:/usr/lib/gcc/arm-linux-gnueabihf/4.9/include/arm_neon.h **** #if __ARM_ARCH >= 8
1508:/usr/lib/gcc/arm-linux-gnueabihf/4.9/include/arm_neon.h **** __extension__ static __inline float32x2_t __attribute__ ((__always_inline__))
1509:/usr/lib/gcc/arm-linux-gnueabihf/4.9/include/arm_neon.h **** vrnd_f32 (float32x2_t __a)
1510:/usr/lib/gcc/arm-linux-gnueabihf/4.9/include/arm_neon.h **** {
1511:/usr/lib/gcc/arm-linux-gnueabihf/4.9/include/arm_neon.h ****   return (float32x2_t)__builtin_neon_vrintzv2sf (__a);
1512:/usr/lib/gcc/arm-linux-gnueabihf/4.9/include/arm_neon.h **** }
1513:/usr/lib/gcc/arm-linux-gnueabihf/4.9/include/arm_neon.h **** 
1514:/usr/lib/gcc/arm-linux-gnueabihf/4.9/include/arm_neon.h **** #endif
1515:/usr/lib/gcc/arm-linux-gnueabihf/4.9/include/arm_neon.h **** #if __ARM_ARCH >= 8
1516:/usr/lib/gcc/arm-linux-gnueabihf/4.9/include/arm_neon.h **** __extension__ static __inline float32x4_t __attribute__ ((__always_inline__))
1517:/usr/lib/gcc/arm-linux-gnueabihf/4.9/include/arm_neon.h **** vrndq_f32 (float32x4_t __a)
1518:/usr/lib/gcc/arm-linux-gnueabihf/4.9/include/arm_neon.h **** {
1519:/usr/lib/gcc/arm-linux-gnueabihf/4.9/include/arm_neon.h ****   return (float32x4_t)__builtin_neon_vrintzv4sf (__a);
1520:/usr/lib/gcc/arm-linux-gnueabihf/4.9/include/arm_neon.h **** }
1521:/usr/lib/gcc/arm-linux-gnueabihf/4.9/include/arm_neon.h **** 
1522:/usr/lib/gcc/arm-linux-gnueabihf/4.9/include/arm_neon.h **** #endif
1523:/usr/lib/gcc/arm-linux-gnueabihf/4.9/include/arm_neon.h **** __extension__ static __inline int8x8_t __attribute__ ((__always_inline__))
1524:/usr/lib/gcc/arm-linux-gnueabihf/4.9/include/arm_neon.h **** vsub_s8 (int8x8_t __a, int8x8_t __b)
1525:/usr/lib/gcc/arm-linux-gnueabihf/4.9/include/arm_neon.h **** {
1526:/usr/lib/gcc/arm-linux-gnueabihf/4.9/include/arm_neon.h ****   return (int8x8_t)__builtin_neon_vsubv8qi (__a, __b, 1);
1527:/usr/lib/gcc/arm-linux-gnueabihf/4.9/include/arm_neon.h **** }
1528:/usr/lib/gcc/arm-linux-gnueabihf/4.9/include/arm_neon.h **** 
1529:/usr/lib/gcc/arm-linux-gnueabihf/4.9/include/arm_neon.h **** __extension__ static __inline int16x4_t __attribute__ ((__always_inline__))
1530:/usr/lib/gcc/arm-linux-gnueabihf/4.9/include/arm_neon.h **** vsub_s16 (int16x4_t __a, int16x4_t __b)
1531:/usr/lib/gcc/arm-linux-gnueabihf/4.9/include/arm_neon.h **** {
1532:/usr/lib/gcc/arm-linux-gnueabihf/4.9/include/arm_neon.h ****   return (int16x4_t)__builtin_neon_vsubv4hi (__a, __b, 1);
1533:/usr/lib/gcc/arm-linux-gnueabihf/4.9/include/arm_neon.h **** }
1534:/usr/lib/gcc/arm-linux-gnueabihf/4.9/include/arm_neon.h **** 
1535:/usr/lib/gcc/arm-linux-gnueabihf/4.9/include/arm_neon.h **** __extension__ static __inline int32x2_t __attribute__ ((__always_inline__))
1536:/usr/lib/gcc/arm-linux-gnueabihf/4.9/include/arm_neon.h **** vsub_s32 (int32x2_t __a, int32x2_t __b)
1537:/usr/lib/gcc/arm-linux-gnueabihf/4.9/include/arm_neon.h **** {
1538:/usr/lib/gcc/arm-linux-gnueabihf/4.9/include/arm_neon.h ****   return (int32x2_t)__builtin_neon_vsubv2si (__a, __b, 1);
1539:/usr/lib/gcc/arm-linux-gnueabihf/4.9/include/arm_neon.h **** }
1540:/usr/lib/gcc/arm-linux-gnueabihf/4.9/include/arm_neon.h **** 
1541:/usr/lib/gcc/arm-linux-gnueabihf/4.9/include/arm_neon.h **** __extension__ static __inline float32x2_t __attribute__ ((__always_inline__))
1542:/usr/lib/gcc/arm-linux-gnueabihf/4.9/include/arm_neon.h **** vsub_f32 (float32x2_t __a, float32x2_t __b)
1543:/usr/lib/gcc/arm-linux-gnueabihf/4.9/include/arm_neon.h **** {
1544:/usr/lib/gcc/arm-linux-gnueabihf/4.9/include/arm_neon.h ****   return (float32x2_t)__builtin_neon_vsubv2sf (__a, __b, 3);
1545:/usr/lib/gcc/arm-linux-gnueabihf/4.9/include/arm_neon.h **** }
1546:/usr/lib/gcc/arm-linux-gnueabihf/4.9/include/arm_neon.h **** 
1547:/usr/lib/gcc/arm-linux-gnueabihf/4.9/include/arm_neon.h **** __extension__ static __inline uint8x8_t __attribute__ ((__always_inline__))
1548:/usr/lib/gcc/arm-linux-gnueabihf/4.9/include/arm_neon.h **** vsub_u8 (uint8x8_t __a, uint8x8_t __b)
1549:/usr/lib/gcc/arm-linux-gnueabihf/4.9/include/arm_neon.h **** {
1550:/usr/lib/gcc/arm-linux-gnueabihf/4.9/include/arm_neon.h ****   return (uint8x8_t)__builtin_neon_vsubv8qi ((int8x8_t) __a, (int8x8_t) __b, 0);
1551:/usr/lib/gcc/arm-linux-gnueabihf/4.9/include/arm_neon.h **** }
1552:/usr/lib/gcc/arm-linux-gnueabihf/4.9/include/arm_neon.h **** 
1553:/usr/lib/gcc/arm-linux-gnueabihf/4.9/include/arm_neon.h **** __extension__ static __inline uint16x4_t __attribute__ ((__always_inline__))
1554:/usr/lib/gcc/arm-linux-gnueabihf/4.9/include/arm_neon.h **** vsub_u16 (uint16x4_t __a, uint16x4_t __b)
1555:/usr/lib/gcc/arm-linux-gnueabihf/4.9/include/arm_neon.h **** {
1556:/usr/lib/gcc/arm-linux-gnueabihf/4.9/include/arm_neon.h ****   return (uint16x4_t)__builtin_neon_vsubv4hi ((int16x4_t) __a, (int16x4_t) __b, 0);
1557:/usr/lib/gcc/arm-linux-gnueabihf/4.9/include/arm_neon.h **** }
1558:/usr/lib/gcc/arm-linux-gnueabihf/4.9/include/arm_neon.h **** 
1559:/usr/lib/gcc/arm-linux-gnueabihf/4.9/include/arm_neon.h **** __extension__ static __inline uint32x2_t __attribute__ ((__always_inline__))
1560:/usr/lib/gcc/arm-linux-gnueabihf/4.9/include/arm_neon.h **** vsub_u32 (uint32x2_t __a, uint32x2_t __b)
1561:/usr/lib/gcc/arm-linux-gnueabihf/4.9/include/arm_neon.h **** {
1562:/usr/lib/gcc/arm-linux-gnueabihf/4.9/include/arm_neon.h ****   return (uint32x2_t)__builtin_neon_vsubv2si ((int32x2_t) __a, (int32x2_t) __b, 0);
1563:/usr/lib/gcc/arm-linux-gnueabihf/4.9/include/arm_neon.h **** }
1564:/usr/lib/gcc/arm-linux-gnueabihf/4.9/include/arm_neon.h **** 
1565:/usr/lib/gcc/arm-linux-gnueabihf/4.9/include/arm_neon.h **** __extension__ static __inline int64x1_t __attribute__ ((__always_inline__))
1566:/usr/lib/gcc/arm-linux-gnueabihf/4.9/include/arm_neon.h **** vsub_s64 (int64x1_t __a, int64x1_t __b)
1567:/usr/lib/gcc/arm-linux-gnueabihf/4.9/include/arm_neon.h **** {
1568:/usr/lib/gcc/arm-linux-gnueabihf/4.9/include/arm_neon.h ****   return (int64x1_t)__builtin_neon_vsubdi (__a, __b, 1);
1569:/usr/lib/gcc/arm-linux-gnueabihf/4.9/include/arm_neon.h **** }
1570:/usr/lib/gcc/arm-linux-gnueabihf/4.9/include/arm_neon.h **** 
1571:/usr/lib/gcc/arm-linux-gnueabihf/4.9/include/arm_neon.h **** __extension__ static __inline uint64x1_t __attribute__ ((__always_inline__))
1572:/usr/lib/gcc/arm-linux-gnueabihf/4.9/include/arm_neon.h **** vsub_u64 (uint64x1_t __a, uint64x1_t __b)
1573:/usr/lib/gcc/arm-linux-gnueabihf/4.9/include/arm_neon.h **** {
1574:/usr/lib/gcc/arm-linux-gnueabihf/4.9/include/arm_neon.h ****   return (uint64x1_t)__builtin_neon_vsubdi ((int64x1_t) __a, (int64x1_t) __b, 0);
1575:/usr/lib/gcc/arm-linux-gnueabihf/4.9/include/arm_neon.h **** }
1576:/usr/lib/gcc/arm-linux-gnueabihf/4.9/include/arm_neon.h **** 
1577:/usr/lib/gcc/arm-linux-gnueabihf/4.9/include/arm_neon.h **** __extension__ static __inline int8x16_t __attribute__ ((__always_inline__))
1578:/usr/lib/gcc/arm-linux-gnueabihf/4.9/include/arm_neon.h **** vsubq_s8 (int8x16_t __a, int8x16_t __b)
1579:/usr/lib/gcc/arm-linux-gnueabihf/4.9/include/arm_neon.h **** {
1580:/usr/lib/gcc/arm-linux-gnueabihf/4.9/include/arm_neon.h ****   return (int8x16_t)__builtin_neon_vsubv16qi (__a, __b, 1);
1581:/usr/lib/gcc/arm-linux-gnueabihf/4.9/include/arm_neon.h **** }
1582:/usr/lib/gcc/arm-linux-gnueabihf/4.9/include/arm_neon.h **** 
1583:/usr/lib/gcc/arm-linux-gnueabihf/4.9/include/arm_neon.h **** __extension__ static __inline int16x8_t __attribute__ ((__always_inline__))
1584:/usr/lib/gcc/arm-linux-gnueabihf/4.9/include/arm_neon.h **** vsubq_s16 (int16x8_t __a, int16x8_t __b)
1585:/usr/lib/gcc/arm-linux-gnueabihf/4.9/include/arm_neon.h **** {
1586:/usr/lib/gcc/arm-linux-gnueabihf/4.9/include/arm_neon.h ****   return (int16x8_t)__builtin_neon_vsubv8hi (__a, __b, 1);
1587:/usr/lib/gcc/arm-linux-gnueabihf/4.9/include/arm_neon.h **** }
1588:/usr/lib/gcc/arm-linux-gnueabihf/4.9/include/arm_neon.h **** 
1589:/usr/lib/gcc/arm-linux-gnueabihf/4.9/include/arm_neon.h **** __extension__ static __inline int32x4_t __attribute__ ((__always_inline__))
1590:/usr/lib/gcc/arm-linux-gnueabihf/4.9/include/arm_neon.h **** vsubq_s32 (int32x4_t __a, int32x4_t __b)
1591:/usr/lib/gcc/arm-linux-gnueabihf/4.9/include/arm_neon.h **** {
1592:/usr/lib/gcc/arm-linux-gnueabihf/4.9/include/arm_neon.h ****   return (int32x4_t)__builtin_neon_vsubv4si (__a, __b, 1);
1593:/usr/lib/gcc/arm-linux-gnueabihf/4.9/include/arm_neon.h **** }
1594:/usr/lib/gcc/arm-linux-gnueabihf/4.9/include/arm_neon.h **** 
1595:/usr/lib/gcc/arm-linux-gnueabihf/4.9/include/arm_neon.h **** __extension__ static __inline int64x2_t __attribute__ ((__always_inline__))
1596:/usr/lib/gcc/arm-linux-gnueabihf/4.9/include/arm_neon.h **** vsubq_s64 (int64x2_t __a, int64x2_t __b)
1597:/usr/lib/gcc/arm-linux-gnueabihf/4.9/include/arm_neon.h **** {
1598:/usr/lib/gcc/arm-linux-gnueabihf/4.9/include/arm_neon.h ****   return (int64x2_t)__builtin_neon_vsubv2di (__a, __b, 1);
1599:/usr/lib/gcc/arm-linux-gnueabihf/4.9/include/arm_neon.h **** }
1600:/usr/lib/gcc/arm-linux-gnueabihf/4.9/include/arm_neon.h **** 
1601:/usr/lib/gcc/arm-linux-gnueabihf/4.9/include/arm_neon.h **** __extension__ static __inline float32x4_t __attribute__ ((__always_inline__))
1602:/usr/lib/gcc/arm-linux-gnueabihf/4.9/include/arm_neon.h **** vsubq_f32 (float32x4_t __a, float32x4_t __b)
1603:/usr/lib/gcc/arm-linux-gnueabihf/4.9/include/arm_neon.h **** {
1604:/usr/lib/gcc/arm-linux-gnueabihf/4.9/include/arm_neon.h ****   return (float32x4_t)__builtin_neon_vsubv4sf (__a, __b, 3);
1605:/usr/lib/gcc/arm-linux-gnueabihf/4.9/include/arm_neon.h **** }
1606:/usr/lib/gcc/arm-linux-gnueabihf/4.9/include/arm_neon.h **** 
1607:/usr/lib/gcc/arm-linux-gnueabihf/4.9/include/arm_neon.h **** __extension__ static __inline uint8x16_t __attribute__ ((__always_inline__))
1608:/usr/lib/gcc/arm-linux-gnueabihf/4.9/include/arm_neon.h **** vsubq_u8 (uint8x16_t __a, uint8x16_t __b)
1609:/usr/lib/gcc/arm-linux-gnueabihf/4.9/include/arm_neon.h **** {
1610:/usr/lib/gcc/arm-linux-gnueabihf/4.9/include/arm_neon.h ****   return (uint8x16_t)__builtin_neon_vsubv16qi ((int8x16_t) __a, (int8x16_t) __b, 0);
1611:/usr/lib/gcc/arm-linux-gnueabihf/4.9/include/arm_neon.h **** }
1612:/usr/lib/gcc/arm-linux-gnueabihf/4.9/include/arm_neon.h **** 
1613:/usr/lib/gcc/arm-linux-gnueabihf/4.9/include/arm_neon.h **** __extension__ static __inline uint16x8_t __attribute__ ((__always_inline__))
1614:/usr/lib/gcc/arm-linux-gnueabihf/4.9/include/arm_neon.h **** vsubq_u16 (uint16x8_t __a, uint16x8_t __b)
1615:/usr/lib/gcc/arm-linux-gnueabihf/4.9/include/arm_neon.h **** {
1616:/usr/lib/gcc/arm-linux-gnueabihf/4.9/include/arm_neon.h ****   return (uint16x8_t)__builtin_neon_vsubv8hi ((int16x8_t) __a, (int16x8_t) __b, 0);
1617:/usr/lib/gcc/arm-linux-gnueabihf/4.9/include/arm_neon.h **** }
1618:/usr/lib/gcc/arm-linux-gnueabihf/4.9/include/arm_neon.h **** 
1619:/usr/lib/gcc/arm-linux-gnueabihf/4.9/include/arm_neon.h **** __extension__ static __inline uint32x4_t __attribute__ ((__always_inline__))
1620:/usr/lib/gcc/arm-linux-gnueabihf/4.9/include/arm_neon.h **** vsubq_u32 (uint32x4_t __a, uint32x4_t __b)
1621:/usr/lib/gcc/arm-linux-gnueabihf/4.9/include/arm_neon.h **** {
1622:/usr/lib/gcc/arm-linux-gnueabihf/4.9/include/arm_neon.h ****   return (uint32x4_t)__builtin_neon_vsubv4si ((int32x4_t) __a, (int32x4_t) __b, 0);
1623:/usr/lib/gcc/arm-linux-gnueabihf/4.9/include/arm_neon.h **** }
1624:/usr/lib/gcc/arm-linux-gnueabihf/4.9/include/arm_neon.h **** 
1625:/usr/lib/gcc/arm-linux-gnueabihf/4.9/include/arm_neon.h **** __extension__ static __inline uint64x2_t __attribute__ ((__always_inline__))
1626:/usr/lib/gcc/arm-linux-gnueabihf/4.9/include/arm_neon.h **** vsubq_u64 (uint64x2_t __a, uint64x2_t __b)
1627:/usr/lib/gcc/arm-linux-gnueabihf/4.9/include/arm_neon.h **** {
1628:/usr/lib/gcc/arm-linux-gnueabihf/4.9/include/arm_neon.h ****   return (uint64x2_t)__builtin_neon_vsubv2di ((int64x2_t) __a, (int64x2_t) __b, 0);
1629:/usr/lib/gcc/arm-linux-gnueabihf/4.9/include/arm_neon.h **** }
1630:/usr/lib/gcc/arm-linux-gnueabihf/4.9/include/arm_neon.h **** 
1631:/usr/lib/gcc/arm-linux-gnueabihf/4.9/include/arm_neon.h **** __extension__ static __inline int16x8_t __attribute__ ((__always_inline__))
1632:/usr/lib/gcc/arm-linux-gnueabihf/4.9/include/arm_neon.h **** vsubl_s8 (int8x8_t __a, int8x8_t __b)
1633:/usr/lib/gcc/arm-linux-gnueabihf/4.9/include/arm_neon.h **** {
1634:/usr/lib/gcc/arm-linux-gnueabihf/4.9/include/arm_neon.h ****   return (int16x8_t)__builtin_neon_vsublv8qi (__a, __b, 1);
1635:/usr/lib/gcc/arm-linux-gnueabihf/4.9/include/arm_neon.h **** }
1636:/usr/lib/gcc/arm-linux-gnueabihf/4.9/include/arm_neon.h **** 
1637:/usr/lib/gcc/arm-linux-gnueabihf/4.9/include/arm_neon.h **** __extension__ static __inline int32x4_t __attribute__ ((__always_inline__))
1638:/usr/lib/gcc/arm-linux-gnueabihf/4.9/include/arm_neon.h **** vsubl_s16 (int16x4_t __a, int16x4_t __b)
1639:/usr/lib/gcc/arm-linux-gnueabihf/4.9/include/arm_neon.h **** {
1640:/usr/lib/gcc/arm-linux-gnueabihf/4.9/include/arm_neon.h ****   return (int32x4_t)__builtin_neon_vsublv4hi (__a, __b, 1);
1641:/usr/lib/gcc/arm-linux-gnueabihf/4.9/include/arm_neon.h **** }
1642:/usr/lib/gcc/arm-linux-gnueabihf/4.9/include/arm_neon.h **** 
1643:/usr/lib/gcc/arm-linux-gnueabihf/4.9/include/arm_neon.h **** __extension__ static __inline int64x2_t __attribute__ ((__always_inline__))
1644:/usr/lib/gcc/arm-linux-gnueabihf/4.9/include/arm_neon.h **** vsubl_s32 (int32x2_t __a, int32x2_t __b)
1645:/usr/lib/gcc/arm-linux-gnueabihf/4.9/include/arm_neon.h **** {
1646:/usr/lib/gcc/arm-linux-gnueabihf/4.9/include/arm_neon.h ****   return (int64x2_t)__builtin_neon_vsublv2si (__a, __b, 1);
1647:/usr/lib/gcc/arm-linux-gnueabihf/4.9/include/arm_neon.h **** }
1648:/usr/lib/gcc/arm-linux-gnueabihf/4.9/include/arm_neon.h **** 
1649:/usr/lib/gcc/arm-linux-gnueabihf/4.9/include/arm_neon.h **** __extension__ static __inline uint16x8_t __attribute__ ((__always_inline__))
1650:/usr/lib/gcc/arm-linux-gnueabihf/4.9/include/arm_neon.h **** vsubl_u8 (uint8x8_t __a, uint8x8_t __b)
1651:/usr/lib/gcc/arm-linux-gnueabihf/4.9/include/arm_neon.h **** {
1652:/usr/lib/gcc/arm-linux-gnueabihf/4.9/include/arm_neon.h ****   return (uint16x8_t)__builtin_neon_vsublv8qi ((int8x8_t) __a, (int8x8_t) __b, 0);
1653:/usr/lib/gcc/arm-linux-gnueabihf/4.9/include/arm_neon.h **** }
1654:/usr/lib/gcc/arm-linux-gnueabihf/4.9/include/arm_neon.h **** 
1655:/usr/lib/gcc/arm-linux-gnueabihf/4.9/include/arm_neon.h **** __extension__ static __inline uint32x4_t __attribute__ ((__always_inline__))
1656:/usr/lib/gcc/arm-linux-gnueabihf/4.9/include/arm_neon.h **** vsubl_u16 (uint16x4_t __a, uint16x4_t __b)
1657:/usr/lib/gcc/arm-linux-gnueabihf/4.9/include/arm_neon.h **** {
1658:/usr/lib/gcc/arm-linux-gnueabihf/4.9/include/arm_neon.h ****   return (uint32x4_t)__builtin_neon_vsublv4hi ((int16x4_t) __a, (int16x4_t) __b, 0);
1659:/usr/lib/gcc/arm-linux-gnueabihf/4.9/include/arm_neon.h **** }
1660:/usr/lib/gcc/arm-linux-gnueabihf/4.9/include/arm_neon.h **** 
1661:/usr/lib/gcc/arm-linux-gnueabihf/4.9/include/arm_neon.h **** __extension__ static __inline uint64x2_t __attribute__ ((__always_inline__))
1662:/usr/lib/gcc/arm-linux-gnueabihf/4.9/include/arm_neon.h **** vsubl_u32 (uint32x2_t __a, uint32x2_t __b)
1663:/usr/lib/gcc/arm-linux-gnueabihf/4.9/include/arm_neon.h **** {
1664:/usr/lib/gcc/arm-linux-gnueabihf/4.9/include/arm_neon.h ****   return (uint64x2_t)__builtin_neon_vsublv2si ((int32x2_t) __a, (int32x2_t) __b, 0);
1665:/usr/lib/gcc/arm-linux-gnueabihf/4.9/include/arm_neon.h **** }
1666:/usr/lib/gcc/arm-linux-gnueabihf/4.9/include/arm_neon.h **** 
1667:/usr/lib/gcc/arm-linux-gnueabihf/4.9/include/arm_neon.h **** __extension__ static __inline int16x8_t __attribute__ ((__always_inline__))
1668:/usr/lib/gcc/arm-linux-gnueabihf/4.9/include/arm_neon.h **** vsubw_s8 (int16x8_t __a, int8x8_t __b)
1669:/usr/lib/gcc/arm-linux-gnueabihf/4.9/include/arm_neon.h **** {
1670:/usr/lib/gcc/arm-linux-gnueabihf/4.9/include/arm_neon.h ****   return (int16x8_t)__builtin_neon_vsubwv8qi (__a, __b, 1);
1671:/usr/lib/gcc/arm-linux-gnueabihf/4.9/include/arm_neon.h **** }
1672:/usr/lib/gcc/arm-linux-gnueabihf/4.9/include/arm_neon.h **** 
1673:/usr/lib/gcc/arm-linux-gnueabihf/4.9/include/arm_neon.h **** __extension__ static __inline int32x4_t __attribute__ ((__always_inline__))
1674:/usr/lib/gcc/arm-linux-gnueabihf/4.9/include/arm_neon.h **** vsubw_s16 (int32x4_t __a, int16x4_t __b)
1675:/usr/lib/gcc/arm-linux-gnueabihf/4.9/include/arm_neon.h **** {
1676:/usr/lib/gcc/arm-linux-gnueabihf/4.9/include/arm_neon.h ****   return (int32x4_t)__builtin_neon_vsubwv4hi (__a, __b, 1);
1677:/usr/lib/gcc/arm-linux-gnueabihf/4.9/include/arm_neon.h **** }
1678:/usr/lib/gcc/arm-linux-gnueabihf/4.9/include/arm_neon.h **** 
1679:/usr/lib/gcc/arm-linux-gnueabihf/4.9/include/arm_neon.h **** __extension__ static __inline int64x2_t __attribute__ ((__always_inline__))
1680:/usr/lib/gcc/arm-linux-gnueabihf/4.9/include/arm_neon.h **** vsubw_s32 (int64x2_t __a, int32x2_t __b)
1681:/usr/lib/gcc/arm-linux-gnueabihf/4.9/include/arm_neon.h **** {
1682:/usr/lib/gcc/arm-linux-gnueabihf/4.9/include/arm_neon.h ****   return (int64x2_t)__builtin_neon_vsubwv2si (__a, __b, 1);
1683:/usr/lib/gcc/arm-linux-gnueabihf/4.9/include/arm_neon.h **** }
1684:/usr/lib/gcc/arm-linux-gnueabihf/4.9/include/arm_neon.h **** 
1685:/usr/lib/gcc/arm-linux-gnueabihf/4.9/include/arm_neon.h **** __extension__ static __inline uint16x8_t __attribute__ ((__always_inline__))
1686:/usr/lib/gcc/arm-linux-gnueabihf/4.9/include/arm_neon.h **** vsubw_u8 (uint16x8_t __a, uint8x8_t __b)
1687:/usr/lib/gcc/arm-linux-gnueabihf/4.9/include/arm_neon.h **** {
1688:/usr/lib/gcc/arm-linux-gnueabihf/4.9/include/arm_neon.h ****   return (uint16x8_t)__builtin_neon_vsubwv8qi ((int16x8_t) __a, (int8x8_t) __b, 0);
1689:/usr/lib/gcc/arm-linux-gnueabihf/4.9/include/arm_neon.h **** }
1690:/usr/lib/gcc/arm-linux-gnueabihf/4.9/include/arm_neon.h **** 
1691:/usr/lib/gcc/arm-linux-gnueabihf/4.9/include/arm_neon.h **** __extension__ static __inline uint32x4_t __attribute__ ((__always_inline__))
1692:/usr/lib/gcc/arm-linux-gnueabihf/4.9/include/arm_neon.h **** vsubw_u16 (uint32x4_t __a, uint16x4_t __b)
1693:/usr/lib/gcc/arm-linux-gnueabihf/4.9/include/arm_neon.h **** {
1694:/usr/lib/gcc/arm-linux-gnueabihf/4.9/include/arm_neon.h ****   return (uint32x4_t)__builtin_neon_vsubwv4hi ((int32x4_t) __a, (int16x4_t) __b, 0);
1695:/usr/lib/gcc/arm-linux-gnueabihf/4.9/include/arm_neon.h **** }
1696:/usr/lib/gcc/arm-linux-gnueabihf/4.9/include/arm_neon.h **** 
1697:/usr/lib/gcc/arm-linux-gnueabihf/4.9/include/arm_neon.h **** __extension__ static __inline uint64x2_t __attribute__ ((__always_inline__))
1698:/usr/lib/gcc/arm-linux-gnueabihf/4.9/include/arm_neon.h **** vsubw_u32 (uint64x2_t __a, uint32x2_t __b)
1699:/usr/lib/gcc/arm-linux-gnueabihf/4.9/include/arm_neon.h **** {
1700:/usr/lib/gcc/arm-linux-gnueabihf/4.9/include/arm_neon.h ****   return (uint64x2_t)__builtin_neon_vsubwv2si ((int64x2_t) __a, (int32x2_t) __b, 0);
1701:/usr/lib/gcc/arm-linux-gnueabihf/4.9/include/arm_neon.h **** }
1702:/usr/lib/gcc/arm-linux-gnueabihf/4.9/include/arm_neon.h **** 
1703:/usr/lib/gcc/arm-linux-gnueabihf/4.9/include/arm_neon.h **** __extension__ static __inline int8x8_t __attribute__ ((__always_inline__))
1704:/usr/lib/gcc/arm-linux-gnueabihf/4.9/include/arm_neon.h **** vhsub_s8 (int8x8_t __a, int8x8_t __b)
1705:/usr/lib/gcc/arm-linux-gnueabihf/4.9/include/arm_neon.h **** {
1706:/usr/lib/gcc/arm-linux-gnueabihf/4.9/include/arm_neon.h ****   return (int8x8_t)__builtin_neon_vhsubv8qi (__a, __b, 1);
1707:/usr/lib/gcc/arm-linux-gnueabihf/4.9/include/arm_neon.h **** }
1708:/usr/lib/gcc/arm-linux-gnueabihf/4.9/include/arm_neon.h **** 
1709:/usr/lib/gcc/arm-linux-gnueabihf/4.9/include/arm_neon.h **** __extension__ static __inline int16x4_t __attribute__ ((__always_inline__))
1710:/usr/lib/gcc/arm-linux-gnueabihf/4.9/include/arm_neon.h **** vhsub_s16 (int16x4_t __a, int16x4_t __b)
1711:/usr/lib/gcc/arm-linux-gnueabihf/4.9/include/arm_neon.h **** {
1712:/usr/lib/gcc/arm-linux-gnueabihf/4.9/include/arm_neon.h ****   return (int16x4_t)__builtin_neon_vhsubv4hi (__a, __b, 1);
1713:/usr/lib/gcc/arm-linux-gnueabihf/4.9/include/arm_neon.h **** }
1714:/usr/lib/gcc/arm-linux-gnueabihf/4.9/include/arm_neon.h **** 
1715:/usr/lib/gcc/arm-linux-gnueabihf/4.9/include/arm_neon.h **** __extension__ static __inline int32x2_t __attribute__ ((__always_inline__))
1716:/usr/lib/gcc/arm-linux-gnueabihf/4.9/include/arm_neon.h **** vhsub_s32 (int32x2_t __a, int32x2_t __b)
1717:/usr/lib/gcc/arm-linux-gnueabihf/4.9/include/arm_neon.h **** {
1718:/usr/lib/gcc/arm-linux-gnueabihf/4.9/include/arm_neon.h ****   return (int32x2_t)__builtin_neon_vhsubv2si (__a, __b, 1);
1719:/usr/lib/gcc/arm-linux-gnueabihf/4.9/include/arm_neon.h **** }
1720:/usr/lib/gcc/arm-linux-gnueabihf/4.9/include/arm_neon.h **** 
1721:/usr/lib/gcc/arm-linux-gnueabihf/4.9/include/arm_neon.h **** __extension__ static __inline uint8x8_t __attribute__ ((__always_inline__))
1722:/usr/lib/gcc/arm-linux-gnueabihf/4.9/include/arm_neon.h **** vhsub_u8 (uint8x8_t __a, uint8x8_t __b)
1723:/usr/lib/gcc/arm-linux-gnueabihf/4.9/include/arm_neon.h **** {
1724:/usr/lib/gcc/arm-linux-gnueabihf/4.9/include/arm_neon.h ****   return (uint8x8_t)__builtin_neon_vhsubv8qi ((int8x8_t) __a, (int8x8_t) __b, 0);
1725:/usr/lib/gcc/arm-linux-gnueabihf/4.9/include/arm_neon.h **** }
1726:/usr/lib/gcc/arm-linux-gnueabihf/4.9/include/arm_neon.h **** 
1727:/usr/lib/gcc/arm-linux-gnueabihf/4.9/include/arm_neon.h **** __extension__ static __inline uint16x4_t __attribute__ ((__always_inline__))
1728:/usr/lib/gcc/arm-linux-gnueabihf/4.9/include/arm_neon.h **** vhsub_u16 (uint16x4_t __a, uint16x4_t __b)
1729:/usr/lib/gcc/arm-linux-gnueabihf/4.9/include/arm_neon.h **** {
1730:/usr/lib/gcc/arm-linux-gnueabihf/4.9/include/arm_neon.h ****   return (uint16x4_t)__builtin_neon_vhsubv4hi ((int16x4_t) __a, (int16x4_t) __b, 0);
1731:/usr/lib/gcc/arm-linux-gnueabihf/4.9/include/arm_neon.h **** }
1732:/usr/lib/gcc/arm-linux-gnueabihf/4.9/include/arm_neon.h **** 
1733:/usr/lib/gcc/arm-linux-gnueabihf/4.9/include/arm_neon.h **** __extension__ static __inline uint32x2_t __attribute__ ((__always_inline__))
1734:/usr/lib/gcc/arm-linux-gnueabihf/4.9/include/arm_neon.h **** vhsub_u32 (uint32x2_t __a, uint32x2_t __b)
1735:/usr/lib/gcc/arm-linux-gnueabihf/4.9/include/arm_neon.h **** {
1736:/usr/lib/gcc/arm-linux-gnueabihf/4.9/include/arm_neon.h ****   return (uint32x2_t)__builtin_neon_vhsubv2si ((int32x2_t) __a, (int32x2_t) __b, 0);
1737:/usr/lib/gcc/arm-linux-gnueabihf/4.9/include/arm_neon.h **** }
1738:/usr/lib/gcc/arm-linux-gnueabihf/4.9/include/arm_neon.h **** 
1739:/usr/lib/gcc/arm-linux-gnueabihf/4.9/include/arm_neon.h **** __extension__ static __inline int8x16_t __attribute__ ((__always_inline__))
1740:/usr/lib/gcc/arm-linux-gnueabihf/4.9/include/arm_neon.h **** vhsubq_s8 (int8x16_t __a, int8x16_t __b)
1741:/usr/lib/gcc/arm-linux-gnueabihf/4.9/include/arm_neon.h **** {
1742:/usr/lib/gcc/arm-linux-gnueabihf/4.9/include/arm_neon.h ****   return (int8x16_t)__builtin_neon_vhsubv16qi (__a, __b, 1);
1743:/usr/lib/gcc/arm-linux-gnueabihf/4.9/include/arm_neon.h **** }
1744:/usr/lib/gcc/arm-linux-gnueabihf/4.9/include/arm_neon.h **** 
1745:/usr/lib/gcc/arm-linux-gnueabihf/4.9/include/arm_neon.h **** __extension__ static __inline int16x8_t __attribute__ ((__always_inline__))
1746:/usr/lib/gcc/arm-linux-gnueabihf/4.9/include/arm_neon.h **** vhsubq_s16 (int16x8_t __a, int16x8_t __b)
1747:/usr/lib/gcc/arm-linux-gnueabihf/4.9/include/arm_neon.h **** {
1748:/usr/lib/gcc/arm-linux-gnueabihf/4.9/include/arm_neon.h ****   return (int16x8_t)__builtin_neon_vhsubv8hi (__a, __b, 1);
1749:/usr/lib/gcc/arm-linux-gnueabihf/4.9/include/arm_neon.h **** }
1750:/usr/lib/gcc/arm-linux-gnueabihf/4.9/include/arm_neon.h **** 
1751:/usr/lib/gcc/arm-linux-gnueabihf/4.9/include/arm_neon.h **** __extension__ static __inline int32x4_t __attribute__ ((__always_inline__))
1752:/usr/lib/gcc/arm-linux-gnueabihf/4.9/include/arm_neon.h **** vhsubq_s32 (int32x4_t __a, int32x4_t __b)
1753:/usr/lib/gcc/arm-linux-gnueabihf/4.9/include/arm_neon.h **** {
1754:/usr/lib/gcc/arm-linux-gnueabihf/4.9/include/arm_neon.h ****   return (int32x4_t)__builtin_neon_vhsubv4si (__a, __b, 1);
1755:/usr/lib/gcc/arm-linux-gnueabihf/4.9/include/arm_neon.h **** }
1756:/usr/lib/gcc/arm-linux-gnueabihf/4.9/include/arm_neon.h **** 
1757:/usr/lib/gcc/arm-linux-gnueabihf/4.9/include/arm_neon.h **** __extension__ static __inline uint8x16_t __attribute__ ((__always_inline__))
1758:/usr/lib/gcc/arm-linux-gnueabihf/4.9/include/arm_neon.h **** vhsubq_u8 (uint8x16_t __a, uint8x16_t __b)
1759:/usr/lib/gcc/arm-linux-gnueabihf/4.9/include/arm_neon.h **** {
1760:/usr/lib/gcc/arm-linux-gnueabihf/4.9/include/arm_neon.h ****   return (uint8x16_t)__builtin_neon_vhsubv16qi ((int8x16_t) __a, (int8x16_t) __b, 0);
1761:/usr/lib/gcc/arm-linux-gnueabihf/4.9/include/arm_neon.h **** }
1762:/usr/lib/gcc/arm-linux-gnueabihf/4.9/include/arm_neon.h **** 
1763:/usr/lib/gcc/arm-linux-gnueabihf/4.9/include/arm_neon.h **** __extension__ static __inline uint16x8_t __attribute__ ((__always_inline__))
1764:/usr/lib/gcc/arm-linux-gnueabihf/4.9/include/arm_neon.h **** vhsubq_u16 (uint16x8_t __a, uint16x8_t __b)
1765:/usr/lib/gcc/arm-linux-gnueabihf/4.9/include/arm_neon.h **** {
1766:/usr/lib/gcc/arm-linux-gnueabihf/4.9/include/arm_neon.h ****   return (uint16x8_t)__builtin_neon_vhsubv8hi ((int16x8_t) __a, (int16x8_t) __b, 0);
1767:/usr/lib/gcc/arm-linux-gnueabihf/4.9/include/arm_neon.h **** }
1768:/usr/lib/gcc/arm-linux-gnueabihf/4.9/include/arm_neon.h **** 
1769:/usr/lib/gcc/arm-linux-gnueabihf/4.9/include/arm_neon.h **** __extension__ static __inline uint32x4_t __attribute__ ((__always_inline__))
1770:/usr/lib/gcc/arm-linux-gnueabihf/4.9/include/arm_neon.h **** vhsubq_u32 (uint32x4_t __a, uint32x4_t __b)
1771:/usr/lib/gcc/arm-linux-gnueabihf/4.9/include/arm_neon.h **** {
1772:/usr/lib/gcc/arm-linux-gnueabihf/4.9/include/arm_neon.h ****   return (uint32x4_t)__builtin_neon_vhsubv4si ((int32x4_t) __a, (int32x4_t) __b, 0);
1773:/usr/lib/gcc/arm-linux-gnueabihf/4.9/include/arm_neon.h **** }
1774:/usr/lib/gcc/arm-linux-gnueabihf/4.9/include/arm_neon.h **** 
1775:/usr/lib/gcc/arm-linux-gnueabihf/4.9/include/arm_neon.h **** __extension__ static __inline int8x8_t __attribute__ ((__always_inline__))
1776:/usr/lib/gcc/arm-linux-gnueabihf/4.9/include/arm_neon.h **** vqsub_s8 (int8x8_t __a, int8x8_t __b)
1777:/usr/lib/gcc/arm-linux-gnueabihf/4.9/include/arm_neon.h **** {
1778:/usr/lib/gcc/arm-linux-gnueabihf/4.9/include/arm_neon.h ****   return (int8x8_t)__builtin_neon_vqsubv8qi (__a, __b, 1);
1779:/usr/lib/gcc/arm-linux-gnueabihf/4.9/include/arm_neon.h **** }
1780:/usr/lib/gcc/arm-linux-gnueabihf/4.9/include/arm_neon.h **** 
1781:/usr/lib/gcc/arm-linux-gnueabihf/4.9/include/arm_neon.h **** __extension__ static __inline int16x4_t __attribute__ ((__always_inline__))
1782:/usr/lib/gcc/arm-linux-gnueabihf/4.9/include/arm_neon.h **** vqsub_s16 (int16x4_t __a, int16x4_t __b)
1783:/usr/lib/gcc/arm-linux-gnueabihf/4.9/include/arm_neon.h **** {
1784:/usr/lib/gcc/arm-linux-gnueabihf/4.9/include/arm_neon.h ****   return (int16x4_t)__builtin_neon_vqsubv4hi (__a, __b, 1);
1785:/usr/lib/gcc/arm-linux-gnueabihf/4.9/include/arm_neon.h **** }
1786:/usr/lib/gcc/arm-linux-gnueabihf/4.9/include/arm_neon.h **** 
1787:/usr/lib/gcc/arm-linux-gnueabihf/4.9/include/arm_neon.h **** __extension__ static __inline int32x2_t __attribute__ ((__always_inline__))
1788:/usr/lib/gcc/arm-linux-gnueabihf/4.9/include/arm_neon.h **** vqsub_s32 (int32x2_t __a, int32x2_t __b)
1789:/usr/lib/gcc/arm-linux-gnueabihf/4.9/include/arm_neon.h **** {
1790:/usr/lib/gcc/arm-linux-gnueabihf/4.9/include/arm_neon.h ****   return (int32x2_t)__builtin_neon_vqsubv2si (__a, __b, 1);
1791:/usr/lib/gcc/arm-linux-gnueabihf/4.9/include/arm_neon.h **** }
1792:/usr/lib/gcc/arm-linux-gnueabihf/4.9/include/arm_neon.h **** 
1793:/usr/lib/gcc/arm-linux-gnueabihf/4.9/include/arm_neon.h **** __extension__ static __inline int64x1_t __attribute__ ((__always_inline__))
1794:/usr/lib/gcc/arm-linux-gnueabihf/4.9/include/arm_neon.h **** vqsub_s64 (int64x1_t __a, int64x1_t __b)
1795:/usr/lib/gcc/arm-linux-gnueabihf/4.9/include/arm_neon.h **** {
1796:/usr/lib/gcc/arm-linux-gnueabihf/4.9/include/arm_neon.h ****   return (int64x1_t)__builtin_neon_vqsubdi (__a, __b, 1);
1797:/usr/lib/gcc/arm-linux-gnueabihf/4.9/include/arm_neon.h **** }
1798:/usr/lib/gcc/arm-linux-gnueabihf/4.9/include/arm_neon.h **** 
1799:/usr/lib/gcc/arm-linux-gnueabihf/4.9/include/arm_neon.h **** __extension__ static __inline uint8x8_t __attribute__ ((__always_inline__))
1800:/usr/lib/gcc/arm-linux-gnueabihf/4.9/include/arm_neon.h **** vqsub_u8 (uint8x8_t __a, uint8x8_t __b)
1801:/usr/lib/gcc/arm-linux-gnueabihf/4.9/include/arm_neon.h **** {
1802:/usr/lib/gcc/arm-linux-gnueabihf/4.9/include/arm_neon.h ****   return (uint8x8_t)__builtin_neon_vqsubv8qi ((int8x8_t) __a, (int8x8_t) __b, 0);
1803:/usr/lib/gcc/arm-linux-gnueabihf/4.9/include/arm_neon.h **** }
1804:/usr/lib/gcc/arm-linux-gnueabihf/4.9/include/arm_neon.h **** 
1805:/usr/lib/gcc/arm-linux-gnueabihf/4.9/include/arm_neon.h **** __extension__ static __inline uint16x4_t __attribute__ ((__always_inline__))
1806:/usr/lib/gcc/arm-linux-gnueabihf/4.9/include/arm_neon.h **** vqsub_u16 (uint16x4_t __a, uint16x4_t __b)
1807:/usr/lib/gcc/arm-linux-gnueabihf/4.9/include/arm_neon.h **** {
1808:/usr/lib/gcc/arm-linux-gnueabihf/4.9/include/arm_neon.h ****   return (uint16x4_t)__builtin_neon_vqsubv4hi ((int16x4_t) __a, (int16x4_t) __b, 0);
1809:/usr/lib/gcc/arm-linux-gnueabihf/4.9/include/arm_neon.h **** }
1810:/usr/lib/gcc/arm-linux-gnueabihf/4.9/include/arm_neon.h **** 
1811:/usr/lib/gcc/arm-linux-gnueabihf/4.9/include/arm_neon.h **** __extension__ static __inline uint32x2_t __attribute__ ((__always_inline__))
1812:/usr/lib/gcc/arm-linux-gnueabihf/4.9/include/arm_neon.h **** vqsub_u32 (uint32x2_t __a, uint32x2_t __b)
1813:/usr/lib/gcc/arm-linux-gnueabihf/4.9/include/arm_neon.h **** {
1814:/usr/lib/gcc/arm-linux-gnueabihf/4.9/include/arm_neon.h ****   return (uint32x2_t)__builtin_neon_vqsubv2si ((int32x2_t) __a, (int32x2_t) __b, 0);
1815:/usr/lib/gcc/arm-linux-gnueabihf/4.9/include/arm_neon.h **** }
1816:/usr/lib/gcc/arm-linux-gnueabihf/4.9/include/arm_neon.h **** 
1817:/usr/lib/gcc/arm-linux-gnueabihf/4.9/include/arm_neon.h **** __extension__ static __inline uint64x1_t __attribute__ ((__always_inline__))
1818:/usr/lib/gcc/arm-linux-gnueabihf/4.9/include/arm_neon.h **** vqsub_u64 (uint64x1_t __a, uint64x1_t __b)
1819:/usr/lib/gcc/arm-linux-gnueabihf/4.9/include/arm_neon.h **** {
1820:/usr/lib/gcc/arm-linux-gnueabihf/4.9/include/arm_neon.h ****   return (uint64x1_t)__builtin_neon_vqsubdi ((int64x1_t) __a, (int64x1_t) __b, 0);
1821:/usr/lib/gcc/arm-linux-gnueabihf/4.9/include/arm_neon.h **** }
1822:/usr/lib/gcc/arm-linux-gnueabihf/4.9/include/arm_neon.h **** 
1823:/usr/lib/gcc/arm-linux-gnueabihf/4.9/include/arm_neon.h **** __extension__ static __inline int8x16_t __attribute__ ((__always_inline__))
1824:/usr/lib/gcc/arm-linux-gnueabihf/4.9/include/arm_neon.h **** vqsubq_s8 (int8x16_t __a, int8x16_t __b)
1825:/usr/lib/gcc/arm-linux-gnueabihf/4.9/include/arm_neon.h **** {
1826:/usr/lib/gcc/arm-linux-gnueabihf/4.9/include/arm_neon.h ****   return (int8x16_t)__builtin_neon_vqsubv16qi (__a, __b, 1);
1827:/usr/lib/gcc/arm-linux-gnueabihf/4.9/include/arm_neon.h **** }
1828:/usr/lib/gcc/arm-linux-gnueabihf/4.9/include/arm_neon.h **** 
1829:/usr/lib/gcc/arm-linux-gnueabihf/4.9/include/arm_neon.h **** __extension__ static __inline int16x8_t __attribute__ ((__always_inline__))
1830:/usr/lib/gcc/arm-linux-gnueabihf/4.9/include/arm_neon.h **** vqsubq_s16 (int16x8_t __a, int16x8_t __b)
1831:/usr/lib/gcc/arm-linux-gnueabihf/4.9/include/arm_neon.h **** {
1832:/usr/lib/gcc/arm-linux-gnueabihf/4.9/include/arm_neon.h ****   return (int16x8_t)__builtin_neon_vqsubv8hi (__a, __b, 1);
1833:/usr/lib/gcc/arm-linux-gnueabihf/4.9/include/arm_neon.h **** }
1834:/usr/lib/gcc/arm-linux-gnueabihf/4.9/include/arm_neon.h **** 
1835:/usr/lib/gcc/arm-linux-gnueabihf/4.9/include/arm_neon.h **** __extension__ static __inline int32x4_t __attribute__ ((__always_inline__))
1836:/usr/lib/gcc/arm-linux-gnueabihf/4.9/include/arm_neon.h **** vqsubq_s32 (int32x4_t __a, int32x4_t __b)
1837:/usr/lib/gcc/arm-linux-gnueabihf/4.9/include/arm_neon.h **** {
1838:/usr/lib/gcc/arm-linux-gnueabihf/4.9/include/arm_neon.h ****   return (int32x4_t)__builtin_neon_vqsubv4si (__a, __b, 1);
1839:/usr/lib/gcc/arm-linux-gnueabihf/4.9/include/arm_neon.h **** }
1840:/usr/lib/gcc/arm-linux-gnueabihf/4.9/include/arm_neon.h **** 
1841:/usr/lib/gcc/arm-linux-gnueabihf/4.9/include/arm_neon.h **** __extension__ static __inline int64x2_t __attribute__ ((__always_inline__))
1842:/usr/lib/gcc/arm-linux-gnueabihf/4.9/include/arm_neon.h **** vqsubq_s64 (int64x2_t __a, int64x2_t __b)
1843:/usr/lib/gcc/arm-linux-gnueabihf/4.9/include/arm_neon.h **** {
1844:/usr/lib/gcc/arm-linux-gnueabihf/4.9/include/arm_neon.h ****   return (int64x2_t)__builtin_neon_vqsubv2di (__a, __b, 1);
1845:/usr/lib/gcc/arm-linux-gnueabihf/4.9/include/arm_neon.h **** }
1846:/usr/lib/gcc/arm-linux-gnueabihf/4.9/include/arm_neon.h **** 
1847:/usr/lib/gcc/arm-linux-gnueabihf/4.9/include/arm_neon.h **** __extension__ static __inline uint8x16_t __attribute__ ((__always_inline__))
1848:/usr/lib/gcc/arm-linux-gnueabihf/4.9/include/arm_neon.h **** vqsubq_u8 (uint8x16_t __a, uint8x16_t __b)
1849:/usr/lib/gcc/arm-linux-gnueabihf/4.9/include/arm_neon.h **** {
1850:/usr/lib/gcc/arm-linux-gnueabihf/4.9/include/arm_neon.h ****   return (uint8x16_t)__builtin_neon_vqsubv16qi ((int8x16_t) __a, (int8x16_t) __b, 0);
1851:/usr/lib/gcc/arm-linux-gnueabihf/4.9/include/arm_neon.h **** }
1852:/usr/lib/gcc/arm-linux-gnueabihf/4.9/include/arm_neon.h **** 
1853:/usr/lib/gcc/arm-linux-gnueabihf/4.9/include/arm_neon.h **** __extension__ static __inline uint16x8_t __attribute__ ((__always_inline__))
1854:/usr/lib/gcc/arm-linux-gnueabihf/4.9/include/arm_neon.h **** vqsubq_u16 (uint16x8_t __a, uint16x8_t __b)
1855:/usr/lib/gcc/arm-linux-gnueabihf/4.9/include/arm_neon.h **** {
1856:/usr/lib/gcc/arm-linux-gnueabihf/4.9/include/arm_neon.h ****   return (uint16x8_t)__builtin_neon_vqsubv8hi ((int16x8_t) __a, (int16x8_t) __b, 0);
1857:/usr/lib/gcc/arm-linux-gnueabihf/4.9/include/arm_neon.h **** }
1858:/usr/lib/gcc/arm-linux-gnueabihf/4.9/include/arm_neon.h **** 
1859:/usr/lib/gcc/arm-linux-gnueabihf/4.9/include/arm_neon.h **** __extension__ static __inline uint32x4_t __attribute__ ((__always_inline__))
1860:/usr/lib/gcc/arm-linux-gnueabihf/4.9/include/arm_neon.h **** vqsubq_u32 (uint32x4_t __a, uint32x4_t __b)
1861:/usr/lib/gcc/arm-linux-gnueabihf/4.9/include/arm_neon.h **** {
1862:/usr/lib/gcc/arm-linux-gnueabihf/4.9/include/arm_neon.h ****   return (uint32x4_t)__builtin_neon_vqsubv4si ((int32x4_t) __a, (int32x4_t) __b, 0);
1863:/usr/lib/gcc/arm-linux-gnueabihf/4.9/include/arm_neon.h **** }
1864:/usr/lib/gcc/arm-linux-gnueabihf/4.9/include/arm_neon.h **** 
1865:/usr/lib/gcc/arm-linux-gnueabihf/4.9/include/arm_neon.h **** __extension__ static __inline uint64x2_t __attribute__ ((__always_inline__))
1866:/usr/lib/gcc/arm-linux-gnueabihf/4.9/include/arm_neon.h **** vqsubq_u64 (uint64x2_t __a, uint64x2_t __b)
1867:/usr/lib/gcc/arm-linux-gnueabihf/4.9/include/arm_neon.h **** {
1868:/usr/lib/gcc/arm-linux-gnueabihf/4.9/include/arm_neon.h ****   return (uint64x2_t)__builtin_neon_vqsubv2di ((int64x2_t) __a, (int64x2_t) __b, 0);
1869:/usr/lib/gcc/arm-linux-gnueabihf/4.9/include/arm_neon.h **** }
1870:/usr/lib/gcc/arm-linux-gnueabihf/4.9/include/arm_neon.h **** 
1871:/usr/lib/gcc/arm-linux-gnueabihf/4.9/include/arm_neon.h **** __extension__ static __inline int8x8_t __attribute__ ((__always_inline__))
1872:/usr/lib/gcc/arm-linux-gnueabihf/4.9/include/arm_neon.h **** vsubhn_s16 (int16x8_t __a, int16x8_t __b)
1873:/usr/lib/gcc/arm-linux-gnueabihf/4.9/include/arm_neon.h **** {
1874:/usr/lib/gcc/arm-linux-gnueabihf/4.9/include/arm_neon.h ****   return (int8x8_t)__builtin_neon_vsubhnv8hi (__a, __b, 1);
1875:/usr/lib/gcc/arm-linux-gnueabihf/4.9/include/arm_neon.h **** }
1876:/usr/lib/gcc/arm-linux-gnueabihf/4.9/include/arm_neon.h **** 
1877:/usr/lib/gcc/arm-linux-gnueabihf/4.9/include/arm_neon.h **** __extension__ static __inline int16x4_t __attribute__ ((__always_inline__))
1878:/usr/lib/gcc/arm-linux-gnueabihf/4.9/include/arm_neon.h **** vsubhn_s32 (int32x4_t __a, int32x4_t __b)
1879:/usr/lib/gcc/arm-linux-gnueabihf/4.9/include/arm_neon.h **** {
1880:/usr/lib/gcc/arm-linux-gnueabihf/4.9/include/arm_neon.h ****   return (int16x4_t)__builtin_neon_vsubhnv4si (__a, __b, 1);
1881:/usr/lib/gcc/arm-linux-gnueabihf/4.9/include/arm_neon.h **** }
1882:/usr/lib/gcc/arm-linux-gnueabihf/4.9/include/arm_neon.h **** 
1883:/usr/lib/gcc/arm-linux-gnueabihf/4.9/include/arm_neon.h **** __extension__ static __inline int32x2_t __attribute__ ((__always_inline__))
1884:/usr/lib/gcc/arm-linux-gnueabihf/4.9/include/arm_neon.h **** vsubhn_s64 (int64x2_t __a, int64x2_t __b)
1885:/usr/lib/gcc/arm-linux-gnueabihf/4.9/include/arm_neon.h **** {
1886:/usr/lib/gcc/arm-linux-gnueabihf/4.9/include/arm_neon.h ****   return (int32x2_t)__builtin_neon_vsubhnv2di (__a, __b, 1);
1887:/usr/lib/gcc/arm-linux-gnueabihf/4.9/include/arm_neon.h **** }
1888:/usr/lib/gcc/arm-linux-gnueabihf/4.9/include/arm_neon.h **** 
1889:/usr/lib/gcc/arm-linux-gnueabihf/4.9/include/arm_neon.h **** __extension__ static __inline uint8x8_t __attribute__ ((__always_inline__))
1890:/usr/lib/gcc/arm-linux-gnueabihf/4.9/include/arm_neon.h **** vsubhn_u16 (uint16x8_t __a, uint16x8_t __b)
1891:/usr/lib/gcc/arm-linux-gnueabihf/4.9/include/arm_neon.h **** {
1892:/usr/lib/gcc/arm-linux-gnueabihf/4.9/include/arm_neon.h ****   return (uint8x8_t)__builtin_neon_vsubhnv8hi ((int16x8_t) __a, (int16x8_t) __b, 0);
1893:/usr/lib/gcc/arm-linux-gnueabihf/4.9/include/arm_neon.h **** }
1894:/usr/lib/gcc/arm-linux-gnueabihf/4.9/include/arm_neon.h **** 
1895:/usr/lib/gcc/arm-linux-gnueabihf/4.9/include/arm_neon.h **** __extension__ static __inline uint16x4_t __attribute__ ((__always_inline__))
1896:/usr/lib/gcc/arm-linux-gnueabihf/4.9/include/arm_neon.h **** vsubhn_u32 (uint32x4_t __a, uint32x4_t __b)
1897:/usr/lib/gcc/arm-linux-gnueabihf/4.9/include/arm_neon.h **** {
1898:/usr/lib/gcc/arm-linux-gnueabihf/4.9/include/arm_neon.h ****   return (uint16x4_t)__builtin_neon_vsubhnv4si ((int32x4_t) __a, (int32x4_t) __b, 0);
1899:/usr/lib/gcc/arm-linux-gnueabihf/4.9/include/arm_neon.h **** }
1900:/usr/lib/gcc/arm-linux-gnueabihf/4.9/include/arm_neon.h **** 
1901:/usr/lib/gcc/arm-linux-gnueabihf/4.9/include/arm_neon.h **** __extension__ static __inline uint32x2_t __attribute__ ((__always_inline__))
1902:/usr/lib/gcc/arm-linux-gnueabihf/4.9/include/arm_neon.h **** vsubhn_u64 (uint64x2_t __a, uint64x2_t __b)
1903:/usr/lib/gcc/arm-linux-gnueabihf/4.9/include/arm_neon.h **** {
1904:/usr/lib/gcc/arm-linux-gnueabihf/4.9/include/arm_neon.h ****   return (uint32x2_t)__builtin_neon_vsubhnv2di ((int64x2_t) __a, (int64x2_t) __b, 0);
1905:/usr/lib/gcc/arm-linux-gnueabihf/4.9/include/arm_neon.h **** }
1906:/usr/lib/gcc/arm-linux-gnueabihf/4.9/include/arm_neon.h **** 
1907:/usr/lib/gcc/arm-linux-gnueabihf/4.9/include/arm_neon.h **** __extension__ static __inline int8x8_t __attribute__ ((__always_inline__))
1908:/usr/lib/gcc/arm-linux-gnueabihf/4.9/include/arm_neon.h **** vrsubhn_s16 (int16x8_t __a, int16x8_t __b)
1909:/usr/lib/gcc/arm-linux-gnueabihf/4.9/include/arm_neon.h **** {
1910:/usr/lib/gcc/arm-linux-gnueabihf/4.9/include/arm_neon.h ****   return (int8x8_t)__builtin_neon_vsubhnv8hi (__a, __b, 5);
1911:/usr/lib/gcc/arm-linux-gnueabihf/4.9/include/arm_neon.h **** }
1912:/usr/lib/gcc/arm-linux-gnueabihf/4.9/include/arm_neon.h **** 
1913:/usr/lib/gcc/arm-linux-gnueabihf/4.9/include/arm_neon.h **** __extension__ static __inline int16x4_t __attribute__ ((__always_inline__))
1914:/usr/lib/gcc/arm-linux-gnueabihf/4.9/include/arm_neon.h **** vrsubhn_s32 (int32x4_t __a, int32x4_t __b)
1915:/usr/lib/gcc/arm-linux-gnueabihf/4.9/include/arm_neon.h **** {
1916:/usr/lib/gcc/arm-linux-gnueabihf/4.9/include/arm_neon.h ****   return (int16x4_t)__builtin_neon_vsubhnv4si (__a, __b, 5);
1917:/usr/lib/gcc/arm-linux-gnueabihf/4.9/include/arm_neon.h **** }
1918:/usr/lib/gcc/arm-linux-gnueabihf/4.9/include/arm_neon.h **** 
1919:/usr/lib/gcc/arm-linux-gnueabihf/4.9/include/arm_neon.h **** __extension__ static __inline int32x2_t __attribute__ ((__always_inline__))
1920:/usr/lib/gcc/arm-linux-gnueabihf/4.9/include/arm_neon.h **** vrsubhn_s64 (int64x2_t __a, int64x2_t __b)
1921:/usr/lib/gcc/arm-linux-gnueabihf/4.9/include/arm_neon.h **** {
1922:/usr/lib/gcc/arm-linux-gnueabihf/4.9/include/arm_neon.h ****   return (int32x2_t)__builtin_neon_vsubhnv2di (__a, __b, 5);
1923:/usr/lib/gcc/arm-linux-gnueabihf/4.9/include/arm_neon.h **** }
1924:/usr/lib/gcc/arm-linux-gnueabihf/4.9/include/arm_neon.h **** 
1925:/usr/lib/gcc/arm-linux-gnueabihf/4.9/include/arm_neon.h **** __extension__ static __inline uint8x8_t __attribute__ ((__always_inline__))
1926:/usr/lib/gcc/arm-linux-gnueabihf/4.9/include/arm_neon.h **** vrsubhn_u16 (uint16x8_t __a, uint16x8_t __b)
1927:/usr/lib/gcc/arm-linux-gnueabihf/4.9/include/arm_neon.h **** {
1928:/usr/lib/gcc/arm-linux-gnueabihf/4.9/include/arm_neon.h ****   return (uint8x8_t)__builtin_neon_vsubhnv8hi ((int16x8_t) __a, (int16x8_t) __b, 4);
1929:/usr/lib/gcc/arm-linux-gnueabihf/4.9/include/arm_neon.h **** }
1930:/usr/lib/gcc/arm-linux-gnueabihf/4.9/include/arm_neon.h **** 
1931:/usr/lib/gcc/arm-linux-gnueabihf/4.9/include/arm_neon.h **** __extension__ static __inline uint16x4_t __attribute__ ((__always_inline__))
1932:/usr/lib/gcc/arm-linux-gnueabihf/4.9/include/arm_neon.h **** vrsubhn_u32 (uint32x4_t __a, uint32x4_t __b)
1933:/usr/lib/gcc/arm-linux-gnueabihf/4.9/include/arm_neon.h **** {
1934:/usr/lib/gcc/arm-linux-gnueabihf/4.9/include/arm_neon.h ****   return (uint16x4_t)__builtin_neon_vsubhnv4si ((int32x4_t) __a, (int32x4_t) __b, 4);
1935:/usr/lib/gcc/arm-linux-gnueabihf/4.9/include/arm_neon.h **** }
1936:/usr/lib/gcc/arm-linux-gnueabihf/4.9/include/arm_neon.h **** 
1937:/usr/lib/gcc/arm-linux-gnueabihf/4.9/include/arm_neon.h **** __extension__ static __inline uint32x2_t __attribute__ ((__always_inline__))
1938:/usr/lib/gcc/arm-linux-gnueabihf/4.9/include/arm_neon.h **** vrsubhn_u64 (uint64x2_t __a, uint64x2_t __b)
1939:/usr/lib/gcc/arm-linux-gnueabihf/4.9/include/arm_neon.h **** {
1940:/usr/lib/gcc/arm-linux-gnueabihf/4.9/include/arm_neon.h ****   return (uint32x2_t)__builtin_neon_vsubhnv2di ((int64x2_t) __a, (int64x2_t) __b, 4);
1941:/usr/lib/gcc/arm-linux-gnueabihf/4.9/include/arm_neon.h **** }
1942:/usr/lib/gcc/arm-linux-gnueabihf/4.9/include/arm_neon.h **** 
1943:/usr/lib/gcc/arm-linux-gnueabihf/4.9/include/arm_neon.h **** __extension__ static __inline uint8x8_t __attribute__ ((__always_inline__))
1944:/usr/lib/gcc/arm-linux-gnueabihf/4.9/include/arm_neon.h **** vceq_s8 (int8x8_t __a, int8x8_t __b)
1945:/usr/lib/gcc/arm-linux-gnueabihf/4.9/include/arm_neon.h **** {
1946:/usr/lib/gcc/arm-linux-gnueabihf/4.9/include/arm_neon.h ****   return (uint8x8_t)__builtin_neon_vceqv8qi (__a, __b, 1);
1947:/usr/lib/gcc/arm-linux-gnueabihf/4.9/include/arm_neon.h **** }
1948:/usr/lib/gcc/arm-linux-gnueabihf/4.9/include/arm_neon.h **** 
1949:/usr/lib/gcc/arm-linux-gnueabihf/4.9/include/arm_neon.h **** __extension__ static __inline uint16x4_t __attribute__ ((__always_inline__))
1950:/usr/lib/gcc/arm-linux-gnueabihf/4.9/include/arm_neon.h **** vceq_s16 (int16x4_t __a, int16x4_t __b)
1951:/usr/lib/gcc/arm-linux-gnueabihf/4.9/include/arm_neon.h **** {
1952:/usr/lib/gcc/arm-linux-gnueabihf/4.9/include/arm_neon.h ****   return (uint16x4_t)__builtin_neon_vceqv4hi (__a, __b, 1);
1953:/usr/lib/gcc/arm-linux-gnueabihf/4.9/include/arm_neon.h **** }
1954:/usr/lib/gcc/arm-linux-gnueabihf/4.9/include/arm_neon.h **** 
1955:/usr/lib/gcc/arm-linux-gnueabihf/4.9/include/arm_neon.h **** __extension__ static __inline uint32x2_t __attribute__ ((__always_inline__))
1956:/usr/lib/gcc/arm-linux-gnueabihf/4.9/include/arm_neon.h **** vceq_s32 (int32x2_t __a, int32x2_t __b)
1957:/usr/lib/gcc/arm-linux-gnueabihf/4.9/include/arm_neon.h **** {
1958:/usr/lib/gcc/arm-linux-gnueabihf/4.9/include/arm_neon.h ****   return (uint32x2_t)__builtin_neon_vceqv2si (__a, __b, 1);
1959:/usr/lib/gcc/arm-linux-gnueabihf/4.9/include/arm_neon.h **** }
1960:/usr/lib/gcc/arm-linux-gnueabihf/4.9/include/arm_neon.h **** 
1961:/usr/lib/gcc/arm-linux-gnueabihf/4.9/include/arm_neon.h **** __extension__ static __inline uint32x2_t __attribute__ ((__always_inline__))
1962:/usr/lib/gcc/arm-linux-gnueabihf/4.9/include/arm_neon.h **** vceq_f32 (float32x2_t __a, float32x2_t __b)
1963:/usr/lib/gcc/arm-linux-gnueabihf/4.9/include/arm_neon.h **** {
1964:/usr/lib/gcc/arm-linux-gnueabihf/4.9/include/arm_neon.h ****   return (uint32x2_t)__builtin_neon_vceqv2sf (__a, __b, 3);
1965:/usr/lib/gcc/arm-linux-gnueabihf/4.9/include/arm_neon.h **** }
1966:/usr/lib/gcc/arm-linux-gnueabihf/4.9/include/arm_neon.h **** 
1967:/usr/lib/gcc/arm-linux-gnueabihf/4.9/include/arm_neon.h **** __extension__ static __inline uint8x8_t __attribute__ ((__always_inline__))
1968:/usr/lib/gcc/arm-linux-gnueabihf/4.9/include/arm_neon.h **** vceq_u8 (uint8x8_t __a, uint8x8_t __b)
1969:/usr/lib/gcc/arm-linux-gnueabihf/4.9/include/arm_neon.h **** {
1970:/usr/lib/gcc/arm-linux-gnueabihf/4.9/include/arm_neon.h ****   return (uint8x8_t)__builtin_neon_vceqv8qi ((int8x8_t) __a, (int8x8_t) __b, 0);
1971:/usr/lib/gcc/arm-linux-gnueabihf/4.9/include/arm_neon.h **** }
1972:/usr/lib/gcc/arm-linux-gnueabihf/4.9/include/arm_neon.h **** 
1973:/usr/lib/gcc/arm-linux-gnueabihf/4.9/include/arm_neon.h **** __extension__ static __inline uint16x4_t __attribute__ ((__always_inline__))
1974:/usr/lib/gcc/arm-linux-gnueabihf/4.9/include/arm_neon.h **** vceq_u16 (uint16x4_t __a, uint16x4_t __b)
1975:/usr/lib/gcc/arm-linux-gnueabihf/4.9/include/arm_neon.h **** {
1976:/usr/lib/gcc/arm-linux-gnueabihf/4.9/include/arm_neon.h ****   return (uint16x4_t)__builtin_neon_vceqv4hi ((int16x4_t) __a, (int16x4_t) __b, 0);
1977:/usr/lib/gcc/arm-linux-gnueabihf/4.9/include/arm_neon.h **** }
1978:/usr/lib/gcc/arm-linux-gnueabihf/4.9/include/arm_neon.h **** 
1979:/usr/lib/gcc/arm-linux-gnueabihf/4.9/include/arm_neon.h **** __extension__ static __inline uint32x2_t __attribute__ ((__always_inline__))
1980:/usr/lib/gcc/arm-linux-gnueabihf/4.9/include/arm_neon.h **** vceq_u32 (uint32x2_t __a, uint32x2_t __b)
1981:/usr/lib/gcc/arm-linux-gnueabihf/4.9/include/arm_neon.h **** {
1982:/usr/lib/gcc/arm-linux-gnueabihf/4.9/include/arm_neon.h ****   return (uint32x2_t)__builtin_neon_vceqv2si ((int32x2_t) __a, (int32x2_t) __b, 0);
1983:/usr/lib/gcc/arm-linux-gnueabihf/4.9/include/arm_neon.h **** }
1984:/usr/lib/gcc/arm-linux-gnueabihf/4.9/include/arm_neon.h **** 
1985:/usr/lib/gcc/arm-linux-gnueabihf/4.9/include/arm_neon.h **** __extension__ static __inline uint8x8_t __attribute__ ((__always_inline__))
1986:/usr/lib/gcc/arm-linux-gnueabihf/4.9/include/arm_neon.h **** vceq_p8 (poly8x8_t __a, poly8x8_t __b)
1987:/usr/lib/gcc/arm-linux-gnueabihf/4.9/include/arm_neon.h **** {
1988:/usr/lib/gcc/arm-linux-gnueabihf/4.9/include/arm_neon.h ****   return (uint8x8_t)__builtin_neon_vceqv8qi ((int8x8_t) __a, (int8x8_t) __b, 2);
1989:/usr/lib/gcc/arm-linux-gnueabihf/4.9/include/arm_neon.h **** }
1990:/usr/lib/gcc/arm-linux-gnueabihf/4.9/include/arm_neon.h **** 
1991:/usr/lib/gcc/arm-linux-gnueabihf/4.9/include/arm_neon.h **** __extension__ static __inline uint8x16_t __attribute__ ((__always_inline__))
1992:/usr/lib/gcc/arm-linux-gnueabihf/4.9/include/arm_neon.h **** vceqq_s8 (int8x16_t __a, int8x16_t __b)
1993:/usr/lib/gcc/arm-linux-gnueabihf/4.9/include/arm_neon.h **** {
1994:/usr/lib/gcc/arm-linux-gnueabihf/4.9/include/arm_neon.h ****   return (uint8x16_t)__builtin_neon_vceqv16qi (__a, __b, 1);
1995:/usr/lib/gcc/arm-linux-gnueabihf/4.9/include/arm_neon.h **** }
1996:/usr/lib/gcc/arm-linux-gnueabihf/4.9/include/arm_neon.h **** 
1997:/usr/lib/gcc/arm-linux-gnueabihf/4.9/include/arm_neon.h **** __extension__ static __inline uint16x8_t __attribute__ ((__always_inline__))
1998:/usr/lib/gcc/arm-linux-gnueabihf/4.9/include/arm_neon.h **** vceqq_s16 (int16x8_t __a, int16x8_t __b)
1999:/usr/lib/gcc/arm-linux-gnueabihf/4.9/include/arm_neon.h **** {
2000:/usr/lib/gcc/arm-linux-gnueabihf/4.9/include/arm_neon.h ****   return (uint16x8_t)__builtin_neon_vceqv8hi (__a, __b, 1);
2001:/usr/lib/gcc/arm-linux-gnueabihf/4.9/include/arm_neon.h **** }
2002:/usr/lib/gcc/arm-linux-gnueabihf/4.9/include/arm_neon.h **** 
2003:/usr/lib/gcc/arm-linux-gnueabihf/4.9/include/arm_neon.h **** __extension__ static __inline uint32x4_t __attribute__ ((__always_inline__))
2004:/usr/lib/gcc/arm-linux-gnueabihf/4.9/include/arm_neon.h **** vceqq_s32 (int32x4_t __a, int32x4_t __b)
2005:/usr/lib/gcc/arm-linux-gnueabihf/4.9/include/arm_neon.h **** {
2006:/usr/lib/gcc/arm-linux-gnueabihf/4.9/include/arm_neon.h ****   return (uint32x4_t)__builtin_neon_vceqv4si (__a, __b, 1);
2007:/usr/lib/gcc/arm-linux-gnueabihf/4.9/include/arm_neon.h **** }
2008:/usr/lib/gcc/arm-linux-gnueabihf/4.9/include/arm_neon.h **** 
2009:/usr/lib/gcc/arm-linux-gnueabihf/4.9/include/arm_neon.h **** __extension__ static __inline uint32x4_t __attribute__ ((__always_inline__))
2010:/usr/lib/gcc/arm-linux-gnueabihf/4.9/include/arm_neon.h **** vceqq_f32 (float32x4_t __a, float32x4_t __b)
2011:/usr/lib/gcc/arm-linux-gnueabihf/4.9/include/arm_neon.h **** {
2012:/usr/lib/gcc/arm-linux-gnueabihf/4.9/include/arm_neon.h ****   return (uint32x4_t)__builtin_neon_vceqv4sf (__a, __b, 3);
2013:/usr/lib/gcc/arm-linux-gnueabihf/4.9/include/arm_neon.h **** }
2014:/usr/lib/gcc/arm-linux-gnueabihf/4.9/include/arm_neon.h **** 
2015:/usr/lib/gcc/arm-linux-gnueabihf/4.9/include/arm_neon.h **** __extension__ static __inline uint8x16_t __attribute__ ((__always_inline__))
2016:/usr/lib/gcc/arm-linux-gnueabihf/4.9/include/arm_neon.h **** vceqq_u8 (uint8x16_t __a, uint8x16_t __b)
2017:/usr/lib/gcc/arm-linux-gnueabihf/4.9/include/arm_neon.h **** {
2018:/usr/lib/gcc/arm-linux-gnueabihf/4.9/include/arm_neon.h ****   return (uint8x16_t)__builtin_neon_vceqv16qi ((int8x16_t) __a, (int8x16_t) __b, 0);
2019:/usr/lib/gcc/arm-linux-gnueabihf/4.9/include/arm_neon.h **** }
2020:/usr/lib/gcc/arm-linux-gnueabihf/4.9/include/arm_neon.h **** 
2021:/usr/lib/gcc/arm-linux-gnueabihf/4.9/include/arm_neon.h **** __extension__ static __inline uint16x8_t __attribute__ ((__always_inline__))
2022:/usr/lib/gcc/arm-linux-gnueabihf/4.9/include/arm_neon.h **** vceqq_u16 (uint16x8_t __a, uint16x8_t __b)
2023:/usr/lib/gcc/arm-linux-gnueabihf/4.9/include/arm_neon.h **** {
2024:/usr/lib/gcc/arm-linux-gnueabihf/4.9/include/arm_neon.h ****   return (uint16x8_t)__builtin_neon_vceqv8hi ((int16x8_t) __a, (int16x8_t) __b, 0);
2025:/usr/lib/gcc/arm-linux-gnueabihf/4.9/include/arm_neon.h **** }
2026:/usr/lib/gcc/arm-linux-gnueabihf/4.9/include/arm_neon.h **** 
2027:/usr/lib/gcc/arm-linux-gnueabihf/4.9/include/arm_neon.h **** __extension__ static __inline uint32x4_t __attribute__ ((__always_inline__))
2028:/usr/lib/gcc/arm-linux-gnueabihf/4.9/include/arm_neon.h **** vceqq_u32 (uint32x4_t __a, uint32x4_t __b)
2029:/usr/lib/gcc/arm-linux-gnueabihf/4.9/include/arm_neon.h **** {
2030:/usr/lib/gcc/arm-linux-gnueabihf/4.9/include/arm_neon.h ****   return (uint32x4_t)__builtin_neon_vceqv4si ((int32x4_t) __a, (int32x4_t) __b, 0);
2031:/usr/lib/gcc/arm-linux-gnueabihf/4.9/include/arm_neon.h **** }
2032:/usr/lib/gcc/arm-linux-gnueabihf/4.9/include/arm_neon.h **** 
2033:/usr/lib/gcc/arm-linux-gnueabihf/4.9/include/arm_neon.h **** __extension__ static __inline uint8x16_t __attribute__ ((__always_inline__))
2034:/usr/lib/gcc/arm-linux-gnueabihf/4.9/include/arm_neon.h **** vceqq_p8 (poly8x16_t __a, poly8x16_t __b)
2035:/usr/lib/gcc/arm-linux-gnueabihf/4.9/include/arm_neon.h **** {
2036:/usr/lib/gcc/arm-linux-gnueabihf/4.9/include/arm_neon.h ****   return (uint8x16_t)__builtin_neon_vceqv16qi ((int8x16_t) __a, (int8x16_t) __b, 2);
2037:/usr/lib/gcc/arm-linux-gnueabihf/4.9/include/arm_neon.h **** }
2038:/usr/lib/gcc/arm-linux-gnueabihf/4.9/include/arm_neon.h **** 
2039:/usr/lib/gcc/arm-linux-gnueabihf/4.9/include/arm_neon.h **** __extension__ static __inline uint8x8_t __attribute__ ((__always_inline__))
2040:/usr/lib/gcc/arm-linux-gnueabihf/4.9/include/arm_neon.h **** vcge_s8 (int8x8_t __a, int8x8_t __b)
2041:/usr/lib/gcc/arm-linux-gnueabihf/4.9/include/arm_neon.h **** {
2042:/usr/lib/gcc/arm-linux-gnueabihf/4.9/include/arm_neon.h ****   return (uint8x8_t)__builtin_neon_vcgev8qi (__a, __b, 1);
2043:/usr/lib/gcc/arm-linux-gnueabihf/4.9/include/arm_neon.h **** }
2044:/usr/lib/gcc/arm-linux-gnueabihf/4.9/include/arm_neon.h **** 
2045:/usr/lib/gcc/arm-linux-gnueabihf/4.9/include/arm_neon.h **** __extension__ static __inline uint16x4_t __attribute__ ((__always_inline__))
2046:/usr/lib/gcc/arm-linux-gnueabihf/4.9/include/arm_neon.h **** vcge_s16 (int16x4_t __a, int16x4_t __b)
2047:/usr/lib/gcc/arm-linux-gnueabihf/4.9/include/arm_neon.h **** {
2048:/usr/lib/gcc/arm-linux-gnueabihf/4.9/include/arm_neon.h ****   return (uint16x4_t)__builtin_neon_vcgev4hi (__a, __b, 1);
2049:/usr/lib/gcc/arm-linux-gnueabihf/4.9/include/arm_neon.h **** }
2050:/usr/lib/gcc/arm-linux-gnueabihf/4.9/include/arm_neon.h **** 
2051:/usr/lib/gcc/arm-linux-gnueabihf/4.9/include/arm_neon.h **** __extension__ static __inline uint32x2_t __attribute__ ((__always_inline__))
2052:/usr/lib/gcc/arm-linux-gnueabihf/4.9/include/arm_neon.h **** vcge_s32 (int32x2_t __a, int32x2_t __b)
2053:/usr/lib/gcc/arm-linux-gnueabihf/4.9/include/arm_neon.h **** {
2054:/usr/lib/gcc/arm-linux-gnueabihf/4.9/include/arm_neon.h ****   return (uint32x2_t)__builtin_neon_vcgev2si (__a, __b, 1);
2055:/usr/lib/gcc/arm-linux-gnueabihf/4.9/include/arm_neon.h **** }
2056:/usr/lib/gcc/arm-linux-gnueabihf/4.9/include/arm_neon.h **** 
2057:/usr/lib/gcc/arm-linux-gnueabihf/4.9/include/arm_neon.h **** __extension__ static __inline uint32x2_t __attribute__ ((__always_inline__))
2058:/usr/lib/gcc/arm-linux-gnueabihf/4.9/include/arm_neon.h **** vcge_f32 (float32x2_t __a, float32x2_t __b)
2059:/usr/lib/gcc/arm-linux-gnueabihf/4.9/include/arm_neon.h **** {
2060:/usr/lib/gcc/arm-linux-gnueabihf/4.9/include/arm_neon.h ****   return (uint32x2_t)__builtin_neon_vcgev2sf (__a, __b, 3);
2061:/usr/lib/gcc/arm-linux-gnueabihf/4.9/include/arm_neon.h **** }
2062:/usr/lib/gcc/arm-linux-gnueabihf/4.9/include/arm_neon.h **** 
2063:/usr/lib/gcc/arm-linux-gnueabihf/4.9/include/arm_neon.h **** __extension__ static __inline uint8x8_t __attribute__ ((__always_inline__))
2064:/usr/lib/gcc/arm-linux-gnueabihf/4.9/include/arm_neon.h **** vcge_u8 (uint8x8_t __a, uint8x8_t __b)
2065:/usr/lib/gcc/arm-linux-gnueabihf/4.9/include/arm_neon.h **** {
2066:/usr/lib/gcc/arm-linux-gnueabihf/4.9/include/arm_neon.h ****   return (uint8x8_t)__builtin_neon_vcgeuv8qi ((int8x8_t) __a, (int8x8_t) __b, 0);
2067:/usr/lib/gcc/arm-linux-gnueabihf/4.9/include/arm_neon.h **** }
2068:/usr/lib/gcc/arm-linux-gnueabihf/4.9/include/arm_neon.h **** 
2069:/usr/lib/gcc/arm-linux-gnueabihf/4.9/include/arm_neon.h **** __extension__ static __inline uint16x4_t __attribute__ ((__always_inline__))
2070:/usr/lib/gcc/arm-linux-gnueabihf/4.9/include/arm_neon.h **** vcge_u16 (uint16x4_t __a, uint16x4_t __b)
2071:/usr/lib/gcc/arm-linux-gnueabihf/4.9/include/arm_neon.h **** {
2072:/usr/lib/gcc/arm-linux-gnueabihf/4.9/include/arm_neon.h ****   return (uint16x4_t)__builtin_neon_vcgeuv4hi ((int16x4_t) __a, (int16x4_t) __b, 0);
2073:/usr/lib/gcc/arm-linux-gnueabihf/4.9/include/arm_neon.h **** }
2074:/usr/lib/gcc/arm-linux-gnueabihf/4.9/include/arm_neon.h **** 
2075:/usr/lib/gcc/arm-linux-gnueabihf/4.9/include/arm_neon.h **** __extension__ static __inline uint32x2_t __attribute__ ((__always_inline__))
2076:/usr/lib/gcc/arm-linux-gnueabihf/4.9/include/arm_neon.h **** vcge_u32 (uint32x2_t __a, uint32x2_t __b)
2077:/usr/lib/gcc/arm-linux-gnueabihf/4.9/include/arm_neon.h **** {
2078:/usr/lib/gcc/arm-linux-gnueabihf/4.9/include/arm_neon.h ****   return (uint32x2_t)__builtin_neon_vcgeuv2si ((int32x2_t) __a, (int32x2_t) __b, 0);
2079:/usr/lib/gcc/arm-linux-gnueabihf/4.9/include/arm_neon.h **** }
2080:/usr/lib/gcc/arm-linux-gnueabihf/4.9/include/arm_neon.h **** 
2081:/usr/lib/gcc/arm-linux-gnueabihf/4.9/include/arm_neon.h **** __extension__ static __inline uint8x16_t __attribute__ ((__always_inline__))
2082:/usr/lib/gcc/arm-linux-gnueabihf/4.9/include/arm_neon.h **** vcgeq_s8 (int8x16_t __a, int8x16_t __b)
2083:/usr/lib/gcc/arm-linux-gnueabihf/4.9/include/arm_neon.h **** {
2084:/usr/lib/gcc/arm-linux-gnueabihf/4.9/include/arm_neon.h ****   return (uint8x16_t)__builtin_neon_vcgev16qi (__a, __b, 1);
2085:/usr/lib/gcc/arm-linux-gnueabihf/4.9/include/arm_neon.h **** }
2086:/usr/lib/gcc/arm-linux-gnueabihf/4.9/include/arm_neon.h **** 
2087:/usr/lib/gcc/arm-linux-gnueabihf/4.9/include/arm_neon.h **** __extension__ static __inline uint16x8_t __attribute__ ((__always_inline__))
2088:/usr/lib/gcc/arm-linux-gnueabihf/4.9/include/arm_neon.h **** vcgeq_s16 (int16x8_t __a, int16x8_t __b)
2089:/usr/lib/gcc/arm-linux-gnueabihf/4.9/include/arm_neon.h **** {
2090:/usr/lib/gcc/arm-linux-gnueabihf/4.9/include/arm_neon.h ****   return (uint16x8_t)__builtin_neon_vcgev8hi (__a, __b, 1);
2091:/usr/lib/gcc/arm-linux-gnueabihf/4.9/include/arm_neon.h **** }
2092:/usr/lib/gcc/arm-linux-gnueabihf/4.9/include/arm_neon.h **** 
2093:/usr/lib/gcc/arm-linux-gnueabihf/4.9/include/arm_neon.h **** __extension__ static __inline uint32x4_t __attribute__ ((__always_inline__))
2094:/usr/lib/gcc/arm-linux-gnueabihf/4.9/include/arm_neon.h **** vcgeq_s32 (int32x4_t __a, int32x4_t __b)
2095:/usr/lib/gcc/arm-linux-gnueabihf/4.9/include/arm_neon.h **** {
2096:/usr/lib/gcc/arm-linux-gnueabihf/4.9/include/arm_neon.h ****   return (uint32x4_t)__builtin_neon_vcgev4si (__a, __b, 1);
2097:/usr/lib/gcc/arm-linux-gnueabihf/4.9/include/arm_neon.h **** }
2098:/usr/lib/gcc/arm-linux-gnueabihf/4.9/include/arm_neon.h **** 
2099:/usr/lib/gcc/arm-linux-gnueabihf/4.9/include/arm_neon.h **** __extension__ static __inline uint32x4_t __attribute__ ((__always_inline__))
2100:/usr/lib/gcc/arm-linux-gnueabihf/4.9/include/arm_neon.h **** vcgeq_f32 (float32x4_t __a, float32x4_t __b)
2101:/usr/lib/gcc/arm-linux-gnueabihf/4.9/include/arm_neon.h **** {
2102:/usr/lib/gcc/arm-linux-gnueabihf/4.9/include/arm_neon.h ****   return (uint32x4_t)__builtin_neon_vcgev4sf (__a, __b, 3);
2103:/usr/lib/gcc/arm-linux-gnueabihf/4.9/include/arm_neon.h **** }
2104:/usr/lib/gcc/arm-linux-gnueabihf/4.9/include/arm_neon.h **** 
2105:/usr/lib/gcc/arm-linux-gnueabihf/4.9/include/arm_neon.h **** __extension__ static __inline uint8x16_t __attribute__ ((__always_inline__))
2106:/usr/lib/gcc/arm-linux-gnueabihf/4.9/include/arm_neon.h **** vcgeq_u8 (uint8x16_t __a, uint8x16_t __b)
2107:/usr/lib/gcc/arm-linux-gnueabihf/4.9/include/arm_neon.h **** {
2108:/usr/lib/gcc/arm-linux-gnueabihf/4.9/include/arm_neon.h ****   return (uint8x16_t)__builtin_neon_vcgeuv16qi ((int8x16_t) __a, (int8x16_t) __b, 0);
2109:/usr/lib/gcc/arm-linux-gnueabihf/4.9/include/arm_neon.h **** }
2110:/usr/lib/gcc/arm-linux-gnueabihf/4.9/include/arm_neon.h **** 
2111:/usr/lib/gcc/arm-linux-gnueabihf/4.9/include/arm_neon.h **** __extension__ static __inline uint16x8_t __attribute__ ((__always_inline__))
2112:/usr/lib/gcc/arm-linux-gnueabihf/4.9/include/arm_neon.h **** vcgeq_u16 (uint16x8_t __a, uint16x8_t __b)
2113:/usr/lib/gcc/arm-linux-gnueabihf/4.9/include/arm_neon.h **** {
2114:/usr/lib/gcc/arm-linux-gnueabihf/4.9/include/arm_neon.h ****   return (uint16x8_t)__builtin_neon_vcgeuv8hi ((int16x8_t) __a, (int16x8_t) __b, 0);
2115:/usr/lib/gcc/arm-linux-gnueabihf/4.9/include/arm_neon.h **** }
2116:/usr/lib/gcc/arm-linux-gnueabihf/4.9/include/arm_neon.h **** 
2117:/usr/lib/gcc/arm-linux-gnueabihf/4.9/include/arm_neon.h **** __extension__ static __inline uint32x4_t __attribute__ ((__always_inline__))
2118:/usr/lib/gcc/arm-linux-gnueabihf/4.9/include/arm_neon.h **** vcgeq_u32 (uint32x4_t __a, uint32x4_t __b)
2119:/usr/lib/gcc/arm-linux-gnueabihf/4.9/include/arm_neon.h **** {
2120:/usr/lib/gcc/arm-linux-gnueabihf/4.9/include/arm_neon.h ****   return (uint32x4_t)__builtin_neon_vcgeuv4si ((int32x4_t) __a, (int32x4_t) __b, 0);
2121:/usr/lib/gcc/arm-linux-gnueabihf/4.9/include/arm_neon.h **** }
2122:/usr/lib/gcc/arm-linux-gnueabihf/4.9/include/arm_neon.h **** 
2123:/usr/lib/gcc/arm-linux-gnueabihf/4.9/include/arm_neon.h **** __extension__ static __inline uint8x8_t __attribute__ ((__always_inline__))
2124:/usr/lib/gcc/arm-linux-gnueabihf/4.9/include/arm_neon.h **** vcle_s8 (int8x8_t __a, int8x8_t __b)
2125:/usr/lib/gcc/arm-linux-gnueabihf/4.9/include/arm_neon.h **** {
2126:/usr/lib/gcc/arm-linux-gnueabihf/4.9/include/arm_neon.h ****   return (uint8x8_t)__builtin_neon_vcgev8qi (__b, __a, 1);
2127:/usr/lib/gcc/arm-linux-gnueabihf/4.9/include/arm_neon.h **** }
2128:/usr/lib/gcc/arm-linux-gnueabihf/4.9/include/arm_neon.h **** 
2129:/usr/lib/gcc/arm-linux-gnueabihf/4.9/include/arm_neon.h **** __extension__ static __inline uint16x4_t __attribute__ ((__always_inline__))
2130:/usr/lib/gcc/arm-linux-gnueabihf/4.9/include/arm_neon.h **** vcle_s16 (int16x4_t __a, int16x4_t __b)
2131:/usr/lib/gcc/arm-linux-gnueabihf/4.9/include/arm_neon.h **** {
2132:/usr/lib/gcc/arm-linux-gnueabihf/4.9/include/arm_neon.h ****   return (uint16x4_t)__builtin_neon_vcgev4hi (__b, __a, 1);
2133:/usr/lib/gcc/arm-linux-gnueabihf/4.9/include/arm_neon.h **** }
2134:/usr/lib/gcc/arm-linux-gnueabihf/4.9/include/arm_neon.h **** 
2135:/usr/lib/gcc/arm-linux-gnueabihf/4.9/include/arm_neon.h **** __extension__ static __inline uint32x2_t __attribute__ ((__always_inline__))
2136:/usr/lib/gcc/arm-linux-gnueabihf/4.9/include/arm_neon.h **** vcle_s32 (int32x2_t __a, int32x2_t __b)
2137:/usr/lib/gcc/arm-linux-gnueabihf/4.9/include/arm_neon.h **** {
2138:/usr/lib/gcc/arm-linux-gnueabihf/4.9/include/arm_neon.h ****   return (uint32x2_t)__builtin_neon_vcgev2si (__b, __a, 1);
2139:/usr/lib/gcc/arm-linux-gnueabihf/4.9/include/arm_neon.h **** }
2140:/usr/lib/gcc/arm-linux-gnueabihf/4.9/include/arm_neon.h **** 
2141:/usr/lib/gcc/arm-linux-gnueabihf/4.9/include/arm_neon.h **** __extension__ static __inline uint32x2_t __attribute__ ((__always_inline__))
2142:/usr/lib/gcc/arm-linux-gnueabihf/4.9/include/arm_neon.h **** vcle_f32 (float32x2_t __a, float32x2_t __b)
2143:/usr/lib/gcc/arm-linux-gnueabihf/4.9/include/arm_neon.h **** {
2144:/usr/lib/gcc/arm-linux-gnueabihf/4.9/include/arm_neon.h ****   return (uint32x2_t)__builtin_neon_vcgev2sf (__b, __a, 3);
2145:/usr/lib/gcc/arm-linux-gnueabihf/4.9/include/arm_neon.h **** }
2146:/usr/lib/gcc/arm-linux-gnueabihf/4.9/include/arm_neon.h **** 
2147:/usr/lib/gcc/arm-linux-gnueabihf/4.9/include/arm_neon.h **** __extension__ static __inline uint8x8_t __attribute__ ((__always_inline__))
2148:/usr/lib/gcc/arm-linux-gnueabihf/4.9/include/arm_neon.h **** vcle_u8 (uint8x8_t __a, uint8x8_t __b)
2149:/usr/lib/gcc/arm-linux-gnueabihf/4.9/include/arm_neon.h **** {
2150:/usr/lib/gcc/arm-linux-gnueabihf/4.9/include/arm_neon.h ****   return (uint8x8_t)__builtin_neon_vcgeuv8qi ((int8x8_t) __b, (int8x8_t) __a, 0);
2151:/usr/lib/gcc/arm-linux-gnueabihf/4.9/include/arm_neon.h **** }
2152:/usr/lib/gcc/arm-linux-gnueabihf/4.9/include/arm_neon.h **** 
2153:/usr/lib/gcc/arm-linux-gnueabihf/4.9/include/arm_neon.h **** __extension__ static __inline uint16x4_t __attribute__ ((__always_inline__))
2154:/usr/lib/gcc/arm-linux-gnueabihf/4.9/include/arm_neon.h **** vcle_u16 (uint16x4_t __a, uint16x4_t __b)
2155:/usr/lib/gcc/arm-linux-gnueabihf/4.9/include/arm_neon.h **** {
2156:/usr/lib/gcc/arm-linux-gnueabihf/4.9/include/arm_neon.h ****   return (uint16x4_t)__builtin_neon_vcgeuv4hi ((int16x4_t) __b, (int16x4_t) __a, 0);
2157:/usr/lib/gcc/arm-linux-gnueabihf/4.9/include/arm_neon.h **** }
2158:/usr/lib/gcc/arm-linux-gnueabihf/4.9/include/arm_neon.h **** 
2159:/usr/lib/gcc/arm-linux-gnueabihf/4.9/include/arm_neon.h **** __extension__ static __inline uint32x2_t __attribute__ ((__always_inline__))
2160:/usr/lib/gcc/arm-linux-gnueabihf/4.9/include/arm_neon.h **** vcle_u32 (uint32x2_t __a, uint32x2_t __b)
2161:/usr/lib/gcc/arm-linux-gnueabihf/4.9/include/arm_neon.h **** {
2162:/usr/lib/gcc/arm-linux-gnueabihf/4.9/include/arm_neon.h ****   return (uint32x2_t)__builtin_neon_vcgeuv2si ((int32x2_t) __b, (int32x2_t) __a, 0);
2163:/usr/lib/gcc/arm-linux-gnueabihf/4.9/include/arm_neon.h **** }
2164:/usr/lib/gcc/arm-linux-gnueabihf/4.9/include/arm_neon.h **** 
2165:/usr/lib/gcc/arm-linux-gnueabihf/4.9/include/arm_neon.h **** __extension__ static __inline uint8x16_t __attribute__ ((__always_inline__))
2166:/usr/lib/gcc/arm-linux-gnueabihf/4.9/include/arm_neon.h **** vcleq_s8 (int8x16_t __a, int8x16_t __b)
2167:/usr/lib/gcc/arm-linux-gnueabihf/4.9/include/arm_neon.h **** {
2168:/usr/lib/gcc/arm-linux-gnueabihf/4.9/include/arm_neon.h ****   return (uint8x16_t)__builtin_neon_vcgev16qi (__b, __a, 1);
2169:/usr/lib/gcc/arm-linux-gnueabihf/4.9/include/arm_neon.h **** }
2170:/usr/lib/gcc/arm-linux-gnueabihf/4.9/include/arm_neon.h **** 
2171:/usr/lib/gcc/arm-linux-gnueabihf/4.9/include/arm_neon.h **** __extension__ static __inline uint16x8_t __attribute__ ((__always_inline__))
2172:/usr/lib/gcc/arm-linux-gnueabihf/4.9/include/arm_neon.h **** vcleq_s16 (int16x8_t __a, int16x8_t __b)
2173:/usr/lib/gcc/arm-linux-gnueabihf/4.9/include/arm_neon.h **** {
2174:/usr/lib/gcc/arm-linux-gnueabihf/4.9/include/arm_neon.h ****   return (uint16x8_t)__builtin_neon_vcgev8hi (__b, __a, 1);
2175:/usr/lib/gcc/arm-linux-gnueabihf/4.9/include/arm_neon.h **** }
2176:/usr/lib/gcc/arm-linux-gnueabihf/4.9/include/arm_neon.h **** 
2177:/usr/lib/gcc/arm-linux-gnueabihf/4.9/include/arm_neon.h **** __extension__ static __inline uint32x4_t __attribute__ ((__always_inline__))
2178:/usr/lib/gcc/arm-linux-gnueabihf/4.9/include/arm_neon.h **** vcleq_s32 (int32x4_t __a, int32x4_t __b)
2179:/usr/lib/gcc/arm-linux-gnueabihf/4.9/include/arm_neon.h **** {
2180:/usr/lib/gcc/arm-linux-gnueabihf/4.9/include/arm_neon.h ****   return (uint32x4_t)__builtin_neon_vcgev4si (__b, __a, 1);
2181:/usr/lib/gcc/arm-linux-gnueabihf/4.9/include/arm_neon.h **** }
2182:/usr/lib/gcc/arm-linux-gnueabihf/4.9/include/arm_neon.h **** 
2183:/usr/lib/gcc/arm-linux-gnueabihf/4.9/include/arm_neon.h **** __extension__ static __inline uint32x4_t __attribute__ ((__always_inline__))
2184:/usr/lib/gcc/arm-linux-gnueabihf/4.9/include/arm_neon.h **** vcleq_f32 (float32x4_t __a, float32x4_t __b)
2185:/usr/lib/gcc/arm-linux-gnueabihf/4.9/include/arm_neon.h **** {
2186:/usr/lib/gcc/arm-linux-gnueabihf/4.9/include/arm_neon.h ****   return (uint32x4_t)__builtin_neon_vcgev4sf (__b, __a, 3);
2187:/usr/lib/gcc/arm-linux-gnueabihf/4.9/include/arm_neon.h **** }
2188:/usr/lib/gcc/arm-linux-gnueabihf/4.9/include/arm_neon.h **** 
2189:/usr/lib/gcc/arm-linux-gnueabihf/4.9/include/arm_neon.h **** __extension__ static __inline uint8x16_t __attribute__ ((__always_inline__))
2190:/usr/lib/gcc/arm-linux-gnueabihf/4.9/include/arm_neon.h **** vcleq_u8 (uint8x16_t __a, uint8x16_t __b)
2191:/usr/lib/gcc/arm-linux-gnueabihf/4.9/include/arm_neon.h **** {
2192:/usr/lib/gcc/arm-linux-gnueabihf/4.9/include/arm_neon.h ****   return (uint8x16_t)__builtin_neon_vcgeuv16qi ((int8x16_t) __b, (int8x16_t) __a, 0);
2193:/usr/lib/gcc/arm-linux-gnueabihf/4.9/include/arm_neon.h **** }
2194:/usr/lib/gcc/arm-linux-gnueabihf/4.9/include/arm_neon.h **** 
2195:/usr/lib/gcc/arm-linux-gnueabihf/4.9/include/arm_neon.h **** __extension__ static __inline uint16x8_t __attribute__ ((__always_inline__))
2196:/usr/lib/gcc/arm-linux-gnueabihf/4.9/include/arm_neon.h **** vcleq_u16 (uint16x8_t __a, uint16x8_t __b)
2197:/usr/lib/gcc/arm-linux-gnueabihf/4.9/include/arm_neon.h **** {
2198:/usr/lib/gcc/arm-linux-gnueabihf/4.9/include/arm_neon.h ****   return (uint16x8_t)__builtin_neon_vcgeuv8hi ((int16x8_t) __b, (int16x8_t) __a, 0);
2199:/usr/lib/gcc/arm-linux-gnueabihf/4.9/include/arm_neon.h **** }
2200:/usr/lib/gcc/arm-linux-gnueabihf/4.9/include/arm_neon.h **** 
2201:/usr/lib/gcc/arm-linux-gnueabihf/4.9/include/arm_neon.h **** __extension__ static __inline uint32x4_t __attribute__ ((__always_inline__))
2202:/usr/lib/gcc/arm-linux-gnueabihf/4.9/include/arm_neon.h **** vcleq_u32 (uint32x4_t __a, uint32x4_t __b)
2203:/usr/lib/gcc/arm-linux-gnueabihf/4.9/include/arm_neon.h **** {
2204:/usr/lib/gcc/arm-linux-gnueabihf/4.9/include/arm_neon.h ****   return (uint32x4_t)__builtin_neon_vcgeuv4si ((int32x4_t) __b, (int32x4_t) __a, 0);
2205:/usr/lib/gcc/arm-linux-gnueabihf/4.9/include/arm_neon.h **** }
2206:/usr/lib/gcc/arm-linux-gnueabihf/4.9/include/arm_neon.h **** 
2207:/usr/lib/gcc/arm-linux-gnueabihf/4.9/include/arm_neon.h **** __extension__ static __inline uint8x8_t __attribute__ ((__always_inline__))
2208:/usr/lib/gcc/arm-linux-gnueabihf/4.9/include/arm_neon.h **** vcgt_s8 (int8x8_t __a, int8x8_t __b)
2209:/usr/lib/gcc/arm-linux-gnueabihf/4.9/include/arm_neon.h **** {
2210:/usr/lib/gcc/arm-linux-gnueabihf/4.9/include/arm_neon.h ****   return (uint8x8_t)__builtin_neon_vcgtv8qi (__a, __b, 1);
2211:/usr/lib/gcc/arm-linux-gnueabihf/4.9/include/arm_neon.h **** }
2212:/usr/lib/gcc/arm-linux-gnueabihf/4.9/include/arm_neon.h **** 
2213:/usr/lib/gcc/arm-linux-gnueabihf/4.9/include/arm_neon.h **** __extension__ static __inline uint16x4_t __attribute__ ((__always_inline__))
2214:/usr/lib/gcc/arm-linux-gnueabihf/4.9/include/arm_neon.h **** vcgt_s16 (int16x4_t __a, int16x4_t __b)
2215:/usr/lib/gcc/arm-linux-gnueabihf/4.9/include/arm_neon.h **** {
2216:/usr/lib/gcc/arm-linux-gnueabihf/4.9/include/arm_neon.h ****   return (uint16x4_t)__builtin_neon_vcgtv4hi (__a, __b, 1);
2217:/usr/lib/gcc/arm-linux-gnueabihf/4.9/include/arm_neon.h **** }
2218:/usr/lib/gcc/arm-linux-gnueabihf/4.9/include/arm_neon.h **** 
2219:/usr/lib/gcc/arm-linux-gnueabihf/4.9/include/arm_neon.h **** __extension__ static __inline uint32x2_t __attribute__ ((__always_inline__))
2220:/usr/lib/gcc/arm-linux-gnueabihf/4.9/include/arm_neon.h **** vcgt_s32 (int32x2_t __a, int32x2_t __b)
2221:/usr/lib/gcc/arm-linux-gnueabihf/4.9/include/arm_neon.h **** {
2222:/usr/lib/gcc/arm-linux-gnueabihf/4.9/include/arm_neon.h ****   return (uint32x2_t)__builtin_neon_vcgtv2si (__a, __b, 1);
2223:/usr/lib/gcc/arm-linux-gnueabihf/4.9/include/arm_neon.h **** }
2224:/usr/lib/gcc/arm-linux-gnueabihf/4.9/include/arm_neon.h **** 
2225:/usr/lib/gcc/arm-linux-gnueabihf/4.9/include/arm_neon.h **** __extension__ static __inline uint32x2_t __attribute__ ((__always_inline__))
2226:/usr/lib/gcc/arm-linux-gnueabihf/4.9/include/arm_neon.h **** vcgt_f32 (float32x2_t __a, float32x2_t __b)
2227:/usr/lib/gcc/arm-linux-gnueabihf/4.9/include/arm_neon.h **** {
2228:/usr/lib/gcc/arm-linux-gnueabihf/4.9/include/arm_neon.h ****   return (uint32x2_t)__builtin_neon_vcgtv2sf (__a, __b, 3);
2229:/usr/lib/gcc/arm-linux-gnueabihf/4.9/include/arm_neon.h **** }
2230:/usr/lib/gcc/arm-linux-gnueabihf/4.9/include/arm_neon.h **** 
2231:/usr/lib/gcc/arm-linux-gnueabihf/4.9/include/arm_neon.h **** __extension__ static __inline uint8x8_t __attribute__ ((__always_inline__))
2232:/usr/lib/gcc/arm-linux-gnueabihf/4.9/include/arm_neon.h **** vcgt_u8 (uint8x8_t __a, uint8x8_t __b)
2233:/usr/lib/gcc/arm-linux-gnueabihf/4.9/include/arm_neon.h **** {
2234:/usr/lib/gcc/arm-linux-gnueabihf/4.9/include/arm_neon.h ****   return (uint8x8_t)__builtin_neon_vcgtuv8qi ((int8x8_t) __a, (int8x8_t) __b, 0);
2235:/usr/lib/gcc/arm-linux-gnueabihf/4.9/include/arm_neon.h **** }
2236:/usr/lib/gcc/arm-linux-gnueabihf/4.9/include/arm_neon.h **** 
2237:/usr/lib/gcc/arm-linux-gnueabihf/4.9/include/arm_neon.h **** __extension__ static __inline uint16x4_t __attribute__ ((__always_inline__))
2238:/usr/lib/gcc/arm-linux-gnueabihf/4.9/include/arm_neon.h **** vcgt_u16 (uint16x4_t __a, uint16x4_t __b)
2239:/usr/lib/gcc/arm-linux-gnueabihf/4.9/include/arm_neon.h **** {
2240:/usr/lib/gcc/arm-linux-gnueabihf/4.9/include/arm_neon.h ****   return (uint16x4_t)__builtin_neon_vcgtuv4hi ((int16x4_t) __a, (int16x4_t) __b, 0);
2241:/usr/lib/gcc/arm-linux-gnueabihf/4.9/include/arm_neon.h **** }
2242:/usr/lib/gcc/arm-linux-gnueabihf/4.9/include/arm_neon.h **** 
2243:/usr/lib/gcc/arm-linux-gnueabihf/4.9/include/arm_neon.h **** __extension__ static __inline uint32x2_t __attribute__ ((__always_inline__))
2244:/usr/lib/gcc/arm-linux-gnueabihf/4.9/include/arm_neon.h **** vcgt_u32 (uint32x2_t __a, uint32x2_t __b)
2245:/usr/lib/gcc/arm-linux-gnueabihf/4.9/include/arm_neon.h **** {
2246:/usr/lib/gcc/arm-linux-gnueabihf/4.9/include/arm_neon.h ****   return (uint32x2_t)__builtin_neon_vcgtuv2si ((int32x2_t) __a, (int32x2_t) __b, 0);
2247:/usr/lib/gcc/arm-linux-gnueabihf/4.9/include/arm_neon.h **** }
2248:/usr/lib/gcc/arm-linux-gnueabihf/4.9/include/arm_neon.h **** 
2249:/usr/lib/gcc/arm-linux-gnueabihf/4.9/include/arm_neon.h **** __extension__ static __inline uint8x16_t __attribute__ ((__always_inline__))
2250:/usr/lib/gcc/arm-linux-gnueabihf/4.9/include/arm_neon.h **** vcgtq_s8 (int8x16_t __a, int8x16_t __b)
2251:/usr/lib/gcc/arm-linux-gnueabihf/4.9/include/arm_neon.h **** {
2252:/usr/lib/gcc/arm-linux-gnueabihf/4.9/include/arm_neon.h ****   return (uint8x16_t)__builtin_neon_vcgtv16qi (__a, __b, 1);
2253:/usr/lib/gcc/arm-linux-gnueabihf/4.9/include/arm_neon.h **** }
2254:/usr/lib/gcc/arm-linux-gnueabihf/4.9/include/arm_neon.h **** 
2255:/usr/lib/gcc/arm-linux-gnueabihf/4.9/include/arm_neon.h **** __extension__ static __inline uint16x8_t __attribute__ ((__always_inline__))
2256:/usr/lib/gcc/arm-linux-gnueabihf/4.9/include/arm_neon.h **** vcgtq_s16 (int16x8_t __a, int16x8_t __b)
2257:/usr/lib/gcc/arm-linux-gnueabihf/4.9/include/arm_neon.h **** {
2258:/usr/lib/gcc/arm-linux-gnueabihf/4.9/include/arm_neon.h ****   return (uint16x8_t)__builtin_neon_vcgtv8hi (__a, __b, 1);
2259:/usr/lib/gcc/arm-linux-gnueabihf/4.9/include/arm_neon.h **** }
2260:/usr/lib/gcc/arm-linux-gnueabihf/4.9/include/arm_neon.h **** 
2261:/usr/lib/gcc/arm-linux-gnueabihf/4.9/include/arm_neon.h **** __extension__ static __inline uint32x4_t __attribute__ ((__always_inline__))
2262:/usr/lib/gcc/arm-linux-gnueabihf/4.9/include/arm_neon.h **** vcgtq_s32 (int32x4_t __a, int32x4_t __b)
2263:/usr/lib/gcc/arm-linux-gnueabihf/4.9/include/arm_neon.h **** {
2264:/usr/lib/gcc/arm-linux-gnueabihf/4.9/include/arm_neon.h ****   return (uint32x4_t)__builtin_neon_vcgtv4si (__a, __b, 1);
2265:/usr/lib/gcc/arm-linux-gnueabihf/4.9/include/arm_neon.h **** }
2266:/usr/lib/gcc/arm-linux-gnueabihf/4.9/include/arm_neon.h **** 
2267:/usr/lib/gcc/arm-linux-gnueabihf/4.9/include/arm_neon.h **** __extension__ static __inline uint32x4_t __attribute__ ((__always_inline__))
2268:/usr/lib/gcc/arm-linux-gnueabihf/4.9/include/arm_neon.h **** vcgtq_f32 (float32x4_t __a, float32x4_t __b)
2269:/usr/lib/gcc/arm-linux-gnueabihf/4.9/include/arm_neon.h **** {
2270:/usr/lib/gcc/arm-linux-gnueabihf/4.9/include/arm_neon.h ****   return (uint32x4_t)__builtin_neon_vcgtv4sf (__a, __b, 3);
2271:/usr/lib/gcc/arm-linux-gnueabihf/4.9/include/arm_neon.h **** }
2272:/usr/lib/gcc/arm-linux-gnueabihf/4.9/include/arm_neon.h **** 
2273:/usr/lib/gcc/arm-linux-gnueabihf/4.9/include/arm_neon.h **** __extension__ static __inline uint8x16_t __attribute__ ((__always_inline__))
2274:/usr/lib/gcc/arm-linux-gnueabihf/4.9/include/arm_neon.h **** vcgtq_u8 (uint8x16_t __a, uint8x16_t __b)
2275:/usr/lib/gcc/arm-linux-gnueabihf/4.9/include/arm_neon.h **** {
2276:/usr/lib/gcc/arm-linux-gnueabihf/4.9/include/arm_neon.h ****   return (uint8x16_t)__builtin_neon_vcgtuv16qi ((int8x16_t) __a, (int8x16_t) __b, 0);
2277:/usr/lib/gcc/arm-linux-gnueabihf/4.9/include/arm_neon.h **** }
2278:/usr/lib/gcc/arm-linux-gnueabihf/4.9/include/arm_neon.h **** 
2279:/usr/lib/gcc/arm-linux-gnueabihf/4.9/include/arm_neon.h **** __extension__ static __inline uint16x8_t __attribute__ ((__always_inline__))
2280:/usr/lib/gcc/arm-linux-gnueabihf/4.9/include/arm_neon.h **** vcgtq_u16 (uint16x8_t __a, uint16x8_t __b)
2281:/usr/lib/gcc/arm-linux-gnueabihf/4.9/include/arm_neon.h **** {
2282:/usr/lib/gcc/arm-linux-gnueabihf/4.9/include/arm_neon.h ****   return (uint16x8_t)__builtin_neon_vcgtuv8hi ((int16x8_t) __a, (int16x8_t) __b, 0);
2283:/usr/lib/gcc/arm-linux-gnueabihf/4.9/include/arm_neon.h **** }
2284:/usr/lib/gcc/arm-linux-gnueabihf/4.9/include/arm_neon.h **** 
2285:/usr/lib/gcc/arm-linux-gnueabihf/4.9/include/arm_neon.h **** __extension__ static __inline uint32x4_t __attribute__ ((__always_inline__))
2286:/usr/lib/gcc/arm-linux-gnueabihf/4.9/include/arm_neon.h **** vcgtq_u32 (uint32x4_t __a, uint32x4_t __b)
2287:/usr/lib/gcc/arm-linux-gnueabihf/4.9/include/arm_neon.h **** {
2288:/usr/lib/gcc/arm-linux-gnueabihf/4.9/include/arm_neon.h ****   return (uint32x4_t)__builtin_neon_vcgtuv4si ((int32x4_t) __a, (int32x4_t) __b, 0);
2289:/usr/lib/gcc/arm-linux-gnueabihf/4.9/include/arm_neon.h **** }
2290:/usr/lib/gcc/arm-linux-gnueabihf/4.9/include/arm_neon.h **** 
2291:/usr/lib/gcc/arm-linux-gnueabihf/4.9/include/arm_neon.h **** __extension__ static __inline uint8x8_t __attribute__ ((__always_inline__))
2292:/usr/lib/gcc/arm-linux-gnueabihf/4.9/include/arm_neon.h **** vclt_s8 (int8x8_t __a, int8x8_t __b)
2293:/usr/lib/gcc/arm-linux-gnueabihf/4.9/include/arm_neon.h **** {
2294:/usr/lib/gcc/arm-linux-gnueabihf/4.9/include/arm_neon.h ****   return (uint8x8_t)__builtin_neon_vcgtv8qi (__b, __a, 1);
2295:/usr/lib/gcc/arm-linux-gnueabihf/4.9/include/arm_neon.h **** }
2296:/usr/lib/gcc/arm-linux-gnueabihf/4.9/include/arm_neon.h **** 
2297:/usr/lib/gcc/arm-linux-gnueabihf/4.9/include/arm_neon.h **** __extension__ static __inline uint16x4_t __attribute__ ((__always_inline__))
2298:/usr/lib/gcc/arm-linux-gnueabihf/4.9/include/arm_neon.h **** vclt_s16 (int16x4_t __a, int16x4_t __b)
2299:/usr/lib/gcc/arm-linux-gnueabihf/4.9/include/arm_neon.h **** {
2300:/usr/lib/gcc/arm-linux-gnueabihf/4.9/include/arm_neon.h ****   return (uint16x4_t)__builtin_neon_vcgtv4hi (__b, __a, 1);
2301:/usr/lib/gcc/arm-linux-gnueabihf/4.9/include/arm_neon.h **** }
2302:/usr/lib/gcc/arm-linux-gnueabihf/4.9/include/arm_neon.h **** 
2303:/usr/lib/gcc/arm-linux-gnueabihf/4.9/include/arm_neon.h **** __extension__ static __inline uint32x2_t __attribute__ ((__always_inline__))
2304:/usr/lib/gcc/arm-linux-gnueabihf/4.9/include/arm_neon.h **** vclt_s32 (int32x2_t __a, int32x2_t __b)
2305:/usr/lib/gcc/arm-linux-gnueabihf/4.9/include/arm_neon.h **** {
2306:/usr/lib/gcc/arm-linux-gnueabihf/4.9/include/arm_neon.h ****   return (uint32x2_t)__builtin_neon_vcgtv2si (__b, __a, 1);
2307:/usr/lib/gcc/arm-linux-gnueabihf/4.9/include/arm_neon.h **** }
2308:/usr/lib/gcc/arm-linux-gnueabihf/4.9/include/arm_neon.h **** 
2309:/usr/lib/gcc/arm-linux-gnueabihf/4.9/include/arm_neon.h **** __extension__ static __inline uint32x2_t __attribute__ ((__always_inline__))
2310:/usr/lib/gcc/arm-linux-gnueabihf/4.9/include/arm_neon.h **** vclt_f32 (float32x2_t __a, float32x2_t __b)
2311:/usr/lib/gcc/arm-linux-gnueabihf/4.9/include/arm_neon.h **** {
2312:/usr/lib/gcc/arm-linux-gnueabihf/4.9/include/arm_neon.h ****   return (uint32x2_t)__builtin_neon_vcgtv2sf (__b, __a, 3);
2313:/usr/lib/gcc/arm-linux-gnueabihf/4.9/include/arm_neon.h **** }
2314:/usr/lib/gcc/arm-linux-gnueabihf/4.9/include/arm_neon.h **** 
2315:/usr/lib/gcc/arm-linux-gnueabihf/4.9/include/arm_neon.h **** __extension__ static __inline uint8x8_t __attribute__ ((__always_inline__))
2316:/usr/lib/gcc/arm-linux-gnueabihf/4.9/include/arm_neon.h **** vclt_u8 (uint8x8_t __a, uint8x8_t __b)
2317:/usr/lib/gcc/arm-linux-gnueabihf/4.9/include/arm_neon.h **** {
2318:/usr/lib/gcc/arm-linux-gnueabihf/4.9/include/arm_neon.h ****   return (uint8x8_t)__builtin_neon_vcgtuv8qi ((int8x8_t) __b, (int8x8_t) __a, 0);
2319:/usr/lib/gcc/arm-linux-gnueabihf/4.9/include/arm_neon.h **** }
2320:/usr/lib/gcc/arm-linux-gnueabihf/4.9/include/arm_neon.h **** 
2321:/usr/lib/gcc/arm-linux-gnueabihf/4.9/include/arm_neon.h **** __extension__ static __inline uint16x4_t __attribute__ ((__always_inline__))
2322:/usr/lib/gcc/arm-linux-gnueabihf/4.9/include/arm_neon.h **** vclt_u16 (uint16x4_t __a, uint16x4_t __b)
2323:/usr/lib/gcc/arm-linux-gnueabihf/4.9/include/arm_neon.h **** {
2324:/usr/lib/gcc/arm-linux-gnueabihf/4.9/include/arm_neon.h ****   return (uint16x4_t)__builtin_neon_vcgtuv4hi ((int16x4_t) __b, (int16x4_t) __a, 0);
2325:/usr/lib/gcc/arm-linux-gnueabihf/4.9/include/arm_neon.h **** }
2326:/usr/lib/gcc/arm-linux-gnueabihf/4.9/include/arm_neon.h **** 
2327:/usr/lib/gcc/arm-linux-gnueabihf/4.9/include/arm_neon.h **** __extension__ static __inline uint32x2_t __attribute__ ((__always_inline__))
2328:/usr/lib/gcc/arm-linux-gnueabihf/4.9/include/arm_neon.h **** vclt_u32 (uint32x2_t __a, uint32x2_t __b)
2329:/usr/lib/gcc/arm-linux-gnueabihf/4.9/include/arm_neon.h **** {
2330:/usr/lib/gcc/arm-linux-gnueabihf/4.9/include/arm_neon.h ****   return (uint32x2_t)__builtin_neon_vcgtuv2si ((int32x2_t) __b, (int32x2_t) __a, 0);
2331:/usr/lib/gcc/arm-linux-gnueabihf/4.9/include/arm_neon.h **** }
2332:/usr/lib/gcc/arm-linux-gnueabihf/4.9/include/arm_neon.h **** 
2333:/usr/lib/gcc/arm-linux-gnueabihf/4.9/include/arm_neon.h **** __extension__ static __inline uint8x16_t __attribute__ ((__always_inline__))
2334:/usr/lib/gcc/arm-linux-gnueabihf/4.9/include/arm_neon.h **** vcltq_s8 (int8x16_t __a, int8x16_t __b)
2335:/usr/lib/gcc/arm-linux-gnueabihf/4.9/include/arm_neon.h **** {
2336:/usr/lib/gcc/arm-linux-gnueabihf/4.9/include/arm_neon.h ****   return (uint8x16_t)__builtin_neon_vcgtv16qi (__b, __a, 1);
2337:/usr/lib/gcc/arm-linux-gnueabihf/4.9/include/arm_neon.h **** }
2338:/usr/lib/gcc/arm-linux-gnueabihf/4.9/include/arm_neon.h **** 
2339:/usr/lib/gcc/arm-linux-gnueabihf/4.9/include/arm_neon.h **** __extension__ static __inline uint16x8_t __attribute__ ((__always_inline__))
2340:/usr/lib/gcc/arm-linux-gnueabihf/4.9/include/arm_neon.h **** vcltq_s16 (int16x8_t __a, int16x8_t __b)
2341:/usr/lib/gcc/arm-linux-gnueabihf/4.9/include/arm_neon.h **** {
2342:/usr/lib/gcc/arm-linux-gnueabihf/4.9/include/arm_neon.h ****   return (uint16x8_t)__builtin_neon_vcgtv8hi (__b, __a, 1);
2343:/usr/lib/gcc/arm-linux-gnueabihf/4.9/include/arm_neon.h **** }
2344:/usr/lib/gcc/arm-linux-gnueabihf/4.9/include/arm_neon.h **** 
2345:/usr/lib/gcc/arm-linux-gnueabihf/4.9/include/arm_neon.h **** __extension__ static __inline uint32x4_t __attribute__ ((__always_inline__))
2346:/usr/lib/gcc/arm-linux-gnueabihf/4.9/include/arm_neon.h **** vcltq_s32 (int32x4_t __a, int32x4_t __b)
2347:/usr/lib/gcc/arm-linux-gnueabihf/4.9/include/arm_neon.h **** {
2348:/usr/lib/gcc/arm-linux-gnueabihf/4.9/include/arm_neon.h ****   return (uint32x4_t)__builtin_neon_vcgtv4si (__b, __a, 1);
2349:/usr/lib/gcc/arm-linux-gnueabihf/4.9/include/arm_neon.h **** }
2350:/usr/lib/gcc/arm-linux-gnueabihf/4.9/include/arm_neon.h **** 
2351:/usr/lib/gcc/arm-linux-gnueabihf/4.9/include/arm_neon.h **** __extension__ static __inline uint32x4_t __attribute__ ((__always_inline__))
2352:/usr/lib/gcc/arm-linux-gnueabihf/4.9/include/arm_neon.h **** vcltq_f32 (float32x4_t __a, float32x4_t __b)
2353:/usr/lib/gcc/arm-linux-gnueabihf/4.9/include/arm_neon.h **** {
2354:/usr/lib/gcc/arm-linux-gnueabihf/4.9/include/arm_neon.h ****   return (uint32x4_t)__builtin_neon_vcgtv4sf (__b, __a, 3);
2355:/usr/lib/gcc/arm-linux-gnueabihf/4.9/include/arm_neon.h **** }
2356:/usr/lib/gcc/arm-linux-gnueabihf/4.9/include/arm_neon.h **** 
2357:/usr/lib/gcc/arm-linux-gnueabihf/4.9/include/arm_neon.h **** __extension__ static __inline uint8x16_t __attribute__ ((__always_inline__))
2358:/usr/lib/gcc/arm-linux-gnueabihf/4.9/include/arm_neon.h **** vcltq_u8 (uint8x16_t __a, uint8x16_t __b)
2359:/usr/lib/gcc/arm-linux-gnueabihf/4.9/include/arm_neon.h **** {
2360:/usr/lib/gcc/arm-linux-gnueabihf/4.9/include/arm_neon.h ****   return (uint8x16_t)__builtin_neon_vcgtuv16qi ((int8x16_t) __b, (int8x16_t) __a, 0);
2361:/usr/lib/gcc/arm-linux-gnueabihf/4.9/include/arm_neon.h **** }
2362:/usr/lib/gcc/arm-linux-gnueabihf/4.9/include/arm_neon.h **** 
2363:/usr/lib/gcc/arm-linux-gnueabihf/4.9/include/arm_neon.h **** __extension__ static __inline uint16x8_t __attribute__ ((__always_inline__))
2364:/usr/lib/gcc/arm-linux-gnueabihf/4.9/include/arm_neon.h **** vcltq_u16 (uint16x8_t __a, uint16x8_t __b)
2365:/usr/lib/gcc/arm-linux-gnueabihf/4.9/include/arm_neon.h **** {
2366:/usr/lib/gcc/arm-linux-gnueabihf/4.9/include/arm_neon.h ****   return (uint16x8_t)__builtin_neon_vcgtuv8hi ((int16x8_t) __b, (int16x8_t) __a, 0);
2367:/usr/lib/gcc/arm-linux-gnueabihf/4.9/include/arm_neon.h **** }
2368:/usr/lib/gcc/arm-linux-gnueabihf/4.9/include/arm_neon.h **** 
2369:/usr/lib/gcc/arm-linux-gnueabihf/4.9/include/arm_neon.h **** __extension__ static __inline uint32x4_t __attribute__ ((__always_inline__))
2370:/usr/lib/gcc/arm-linux-gnueabihf/4.9/include/arm_neon.h **** vcltq_u32 (uint32x4_t __a, uint32x4_t __b)
2371:/usr/lib/gcc/arm-linux-gnueabihf/4.9/include/arm_neon.h **** {
2372:/usr/lib/gcc/arm-linux-gnueabihf/4.9/include/arm_neon.h ****   return (uint32x4_t)__builtin_neon_vcgtuv4si ((int32x4_t) __b, (int32x4_t) __a, 0);
2373:/usr/lib/gcc/arm-linux-gnueabihf/4.9/include/arm_neon.h **** }
2374:/usr/lib/gcc/arm-linux-gnueabihf/4.9/include/arm_neon.h **** 
2375:/usr/lib/gcc/arm-linux-gnueabihf/4.9/include/arm_neon.h **** __extension__ static __inline uint32x2_t __attribute__ ((__always_inline__))
2376:/usr/lib/gcc/arm-linux-gnueabihf/4.9/include/arm_neon.h **** vcage_f32 (float32x2_t __a, float32x2_t __b)
2377:/usr/lib/gcc/arm-linux-gnueabihf/4.9/include/arm_neon.h **** {
2378:/usr/lib/gcc/arm-linux-gnueabihf/4.9/include/arm_neon.h ****   return (uint32x2_t)__builtin_neon_vcagev2sf (__a, __b, 3);
2379:/usr/lib/gcc/arm-linux-gnueabihf/4.9/include/arm_neon.h **** }
2380:/usr/lib/gcc/arm-linux-gnueabihf/4.9/include/arm_neon.h **** 
2381:/usr/lib/gcc/arm-linux-gnueabihf/4.9/include/arm_neon.h **** __extension__ static __inline uint32x4_t __attribute__ ((__always_inline__))
2382:/usr/lib/gcc/arm-linux-gnueabihf/4.9/include/arm_neon.h **** vcageq_f32 (float32x4_t __a, float32x4_t __b)
2383:/usr/lib/gcc/arm-linux-gnueabihf/4.9/include/arm_neon.h **** {
2384:/usr/lib/gcc/arm-linux-gnueabihf/4.9/include/arm_neon.h ****   return (uint32x4_t)__builtin_neon_vcagev4sf (__a, __b, 3);
2385:/usr/lib/gcc/arm-linux-gnueabihf/4.9/include/arm_neon.h **** }
2386:/usr/lib/gcc/arm-linux-gnueabihf/4.9/include/arm_neon.h **** 
2387:/usr/lib/gcc/arm-linux-gnueabihf/4.9/include/arm_neon.h **** __extension__ static __inline uint32x2_t __attribute__ ((__always_inline__))
2388:/usr/lib/gcc/arm-linux-gnueabihf/4.9/include/arm_neon.h **** vcale_f32 (float32x2_t __a, float32x2_t __b)
2389:/usr/lib/gcc/arm-linux-gnueabihf/4.9/include/arm_neon.h **** {
2390:/usr/lib/gcc/arm-linux-gnueabihf/4.9/include/arm_neon.h ****   return (uint32x2_t)__builtin_neon_vcagev2sf (__b, __a, 3);
2391:/usr/lib/gcc/arm-linux-gnueabihf/4.9/include/arm_neon.h **** }
2392:/usr/lib/gcc/arm-linux-gnueabihf/4.9/include/arm_neon.h **** 
2393:/usr/lib/gcc/arm-linux-gnueabihf/4.9/include/arm_neon.h **** __extension__ static __inline uint32x4_t __attribute__ ((__always_inline__))
2394:/usr/lib/gcc/arm-linux-gnueabihf/4.9/include/arm_neon.h **** vcaleq_f32 (float32x4_t __a, float32x4_t __b)
2395:/usr/lib/gcc/arm-linux-gnueabihf/4.9/include/arm_neon.h **** {
2396:/usr/lib/gcc/arm-linux-gnueabihf/4.9/include/arm_neon.h ****   return (uint32x4_t)__builtin_neon_vcagev4sf (__b, __a, 3);
2397:/usr/lib/gcc/arm-linux-gnueabihf/4.9/include/arm_neon.h **** }
2398:/usr/lib/gcc/arm-linux-gnueabihf/4.9/include/arm_neon.h **** 
2399:/usr/lib/gcc/arm-linux-gnueabihf/4.9/include/arm_neon.h **** __extension__ static __inline uint32x2_t __attribute__ ((__always_inline__))
2400:/usr/lib/gcc/arm-linux-gnueabihf/4.9/include/arm_neon.h **** vcagt_f32 (float32x2_t __a, float32x2_t __b)
2401:/usr/lib/gcc/arm-linux-gnueabihf/4.9/include/arm_neon.h **** {
2402:/usr/lib/gcc/arm-linux-gnueabihf/4.9/include/arm_neon.h ****   return (uint32x2_t)__builtin_neon_vcagtv2sf (__a, __b, 3);
2403:/usr/lib/gcc/arm-linux-gnueabihf/4.9/include/arm_neon.h **** }
2404:/usr/lib/gcc/arm-linux-gnueabihf/4.9/include/arm_neon.h **** 
2405:/usr/lib/gcc/arm-linux-gnueabihf/4.9/include/arm_neon.h **** __extension__ static __inline uint32x4_t __attribute__ ((__always_inline__))
2406:/usr/lib/gcc/arm-linux-gnueabihf/4.9/include/arm_neon.h **** vcagtq_f32 (float32x4_t __a, float32x4_t __b)
2407:/usr/lib/gcc/arm-linux-gnueabihf/4.9/include/arm_neon.h **** {
2408:/usr/lib/gcc/arm-linux-gnueabihf/4.9/include/arm_neon.h ****   return (uint32x4_t)__builtin_neon_vcagtv4sf (__a, __b, 3);
2409:/usr/lib/gcc/arm-linux-gnueabihf/4.9/include/arm_neon.h **** }
2410:/usr/lib/gcc/arm-linux-gnueabihf/4.9/include/arm_neon.h **** 
2411:/usr/lib/gcc/arm-linux-gnueabihf/4.9/include/arm_neon.h **** __extension__ static __inline uint32x2_t __attribute__ ((__always_inline__))
2412:/usr/lib/gcc/arm-linux-gnueabihf/4.9/include/arm_neon.h **** vcalt_f32 (float32x2_t __a, float32x2_t __b)
2413:/usr/lib/gcc/arm-linux-gnueabihf/4.9/include/arm_neon.h **** {
2414:/usr/lib/gcc/arm-linux-gnueabihf/4.9/include/arm_neon.h ****   return (uint32x2_t)__builtin_neon_vcagtv2sf (__b, __a, 3);
2415:/usr/lib/gcc/arm-linux-gnueabihf/4.9/include/arm_neon.h **** }
2416:/usr/lib/gcc/arm-linux-gnueabihf/4.9/include/arm_neon.h **** 
2417:/usr/lib/gcc/arm-linux-gnueabihf/4.9/include/arm_neon.h **** __extension__ static __inline uint32x4_t __attribute__ ((__always_inline__))
2418:/usr/lib/gcc/arm-linux-gnueabihf/4.9/include/arm_neon.h **** vcaltq_f32 (float32x4_t __a, float32x4_t __b)
2419:/usr/lib/gcc/arm-linux-gnueabihf/4.9/include/arm_neon.h **** {
2420:/usr/lib/gcc/arm-linux-gnueabihf/4.9/include/arm_neon.h ****   return (uint32x4_t)__builtin_neon_vcagtv4sf (__b, __a, 3);
2421:/usr/lib/gcc/arm-linux-gnueabihf/4.9/include/arm_neon.h **** }
2422:/usr/lib/gcc/arm-linux-gnueabihf/4.9/include/arm_neon.h **** 
2423:/usr/lib/gcc/arm-linux-gnueabihf/4.9/include/arm_neon.h **** __extension__ static __inline uint8x8_t __attribute__ ((__always_inline__))
2424:/usr/lib/gcc/arm-linux-gnueabihf/4.9/include/arm_neon.h **** vtst_s8 (int8x8_t __a, int8x8_t __b)
2425:/usr/lib/gcc/arm-linux-gnueabihf/4.9/include/arm_neon.h **** {
2426:/usr/lib/gcc/arm-linux-gnueabihf/4.9/include/arm_neon.h ****   return (uint8x8_t)__builtin_neon_vtstv8qi (__a, __b, 1);
2427:/usr/lib/gcc/arm-linux-gnueabihf/4.9/include/arm_neon.h **** }
2428:/usr/lib/gcc/arm-linux-gnueabihf/4.9/include/arm_neon.h **** 
2429:/usr/lib/gcc/arm-linux-gnueabihf/4.9/include/arm_neon.h **** __extension__ static __inline uint16x4_t __attribute__ ((__always_inline__))
2430:/usr/lib/gcc/arm-linux-gnueabihf/4.9/include/arm_neon.h **** vtst_s16 (int16x4_t __a, int16x4_t __b)
2431:/usr/lib/gcc/arm-linux-gnueabihf/4.9/include/arm_neon.h **** {
2432:/usr/lib/gcc/arm-linux-gnueabihf/4.9/include/arm_neon.h ****   return (uint16x4_t)__builtin_neon_vtstv4hi (__a, __b, 1);
2433:/usr/lib/gcc/arm-linux-gnueabihf/4.9/include/arm_neon.h **** }
2434:/usr/lib/gcc/arm-linux-gnueabihf/4.9/include/arm_neon.h **** 
2435:/usr/lib/gcc/arm-linux-gnueabihf/4.9/include/arm_neon.h **** __extension__ static __inline uint32x2_t __attribute__ ((__always_inline__))
2436:/usr/lib/gcc/arm-linux-gnueabihf/4.9/include/arm_neon.h **** vtst_s32 (int32x2_t __a, int32x2_t __b)
2437:/usr/lib/gcc/arm-linux-gnueabihf/4.9/include/arm_neon.h **** {
2438:/usr/lib/gcc/arm-linux-gnueabihf/4.9/include/arm_neon.h ****   return (uint32x2_t)__builtin_neon_vtstv2si (__a, __b, 1);
2439:/usr/lib/gcc/arm-linux-gnueabihf/4.9/include/arm_neon.h **** }
2440:/usr/lib/gcc/arm-linux-gnueabihf/4.9/include/arm_neon.h **** 
2441:/usr/lib/gcc/arm-linux-gnueabihf/4.9/include/arm_neon.h **** __extension__ static __inline uint8x8_t __attribute__ ((__always_inline__))
2442:/usr/lib/gcc/arm-linux-gnueabihf/4.9/include/arm_neon.h **** vtst_u8 (uint8x8_t __a, uint8x8_t __b)
2443:/usr/lib/gcc/arm-linux-gnueabihf/4.9/include/arm_neon.h **** {
2444:/usr/lib/gcc/arm-linux-gnueabihf/4.9/include/arm_neon.h ****   return (uint8x8_t)__builtin_neon_vtstv8qi ((int8x8_t) __a, (int8x8_t) __b, 0);
2445:/usr/lib/gcc/arm-linux-gnueabihf/4.9/include/arm_neon.h **** }
2446:/usr/lib/gcc/arm-linux-gnueabihf/4.9/include/arm_neon.h **** 
2447:/usr/lib/gcc/arm-linux-gnueabihf/4.9/include/arm_neon.h **** __extension__ static __inline uint16x4_t __attribute__ ((__always_inline__))
2448:/usr/lib/gcc/arm-linux-gnueabihf/4.9/include/arm_neon.h **** vtst_u16 (uint16x4_t __a, uint16x4_t __b)
2449:/usr/lib/gcc/arm-linux-gnueabihf/4.9/include/arm_neon.h **** {
2450:/usr/lib/gcc/arm-linux-gnueabihf/4.9/include/arm_neon.h ****   return (uint16x4_t)__builtin_neon_vtstv4hi ((int16x4_t) __a, (int16x4_t) __b, 0);
2451:/usr/lib/gcc/arm-linux-gnueabihf/4.9/include/arm_neon.h **** }
2452:/usr/lib/gcc/arm-linux-gnueabihf/4.9/include/arm_neon.h **** 
2453:/usr/lib/gcc/arm-linux-gnueabihf/4.9/include/arm_neon.h **** __extension__ static __inline uint32x2_t __attribute__ ((__always_inline__))
2454:/usr/lib/gcc/arm-linux-gnueabihf/4.9/include/arm_neon.h **** vtst_u32 (uint32x2_t __a, uint32x2_t __b)
2455:/usr/lib/gcc/arm-linux-gnueabihf/4.9/include/arm_neon.h **** {
2456:/usr/lib/gcc/arm-linux-gnueabihf/4.9/include/arm_neon.h ****   return (uint32x2_t)__builtin_neon_vtstv2si ((int32x2_t) __a, (int32x2_t) __b, 0);
2457:/usr/lib/gcc/arm-linux-gnueabihf/4.9/include/arm_neon.h **** }
2458:/usr/lib/gcc/arm-linux-gnueabihf/4.9/include/arm_neon.h **** 
2459:/usr/lib/gcc/arm-linux-gnueabihf/4.9/include/arm_neon.h **** __extension__ static __inline uint8x8_t __attribute__ ((__always_inline__))
2460:/usr/lib/gcc/arm-linux-gnueabihf/4.9/include/arm_neon.h **** vtst_p8 (poly8x8_t __a, poly8x8_t __b)
2461:/usr/lib/gcc/arm-linux-gnueabihf/4.9/include/arm_neon.h **** {
2462:/usr/lib/gcc/arm-linux-gnueabihf/4.9/include/arm_neon.h ****   return (uint8x8_t)__builtin_neon_vtstv8qi ((int8x8_t) __a, (int8x8_t) __b, 2);
2463:/usr/lib/gcc/arm-linux-gnueabihf/4.9/include/arm_neon.h **** }
2464:/usr/lib/gcc/arm-linux-gnueabihf/4.9/include/arm_neon.h **** 
2465:/usr/lib/gcc/arm-linux-gnueabihf/4.9/include/arm_neon.h **** __extension__ static __inline uint8x16_t __attribute__ ((__always_inline__))
2466:/usr/lib/gcc/arm-linux-gnueabihf/4.9/include/arm_neon.h **** vtstq_s8 (int8x16_t __a, int8x16_t __b)
2467:/usr/lib/gcc/arm-linux-gnueabihf/4.9/include/arm_neon.h **** {
2468:/usr/lib/gcc/arm-linux-gnueabihf/4.9/include/arm_neon.h ****   return (uint8x16_t)__builtin_neon_vtstv16qi (__a, __b, 1);
2469:/usr/lib/gcc/arm-linux-gnueabihf/4.9/include/arm_neon.h **** }
2470:/usr/lib/gcc/arm-linux-gnueabihf/4.9/include/arm_neon.h **** 
2471:/usr/lib/gcc/arm-linux-gnueabihf/4.9/include/arm_neon.h **** __extension__ static __inline uint16x8_t __attribute__ ((__always_inline__))
2472:/usr/lib/gcc/arm-linux-gnueabihf/4.9/include/arm_neon.h **** vtstq_s16 (int16x8_t __a, int16x8_t __b)
2473:/usr/lib/gcc/arm-linux-gnueabihf/4.9/include/arm_neon.h **** {
2474:/usr/lib/gcc/arm-linux-gnueabihf/4.9/include/arm_neon.h ****   return (uint16x8_t)__builtin_neon_vtstv8hi (__a, __b, 1);
2475:/usr/lib/gcc/arm-linux-gnueabihf/4.9/include/arm_neon.h **** }
2476:/usr/lib/gcc/arm-linux-gnueabihf/4.9/include/arm_neon.h **** 
2477:/usr/lib/gcc/arm-linux-gnueabihf/4.9/include/arm_neon.h **** __extension__ static __inline uint32x4_t __attribute__ ((__always_inline__))
2478:/usr/lib/gcc/arm-linux-gnueabihf/4.9/include/arm_neon.h **** vtstq_s32 (int32x4_t __a, int32x4_t __b)
2479:/usr/lib/gcc/arm-linux-gnueabihf/4.9/include/arm_neon.h **** {
2480:/usr/lib/gcc/arm-linux-gnueabihf/4.9/include/arm_neon.h ****   return (uint32x4_t)__builtin_neon_vtstv4si (__a, __b, 1);
2481:/usr/lib/gcc/arm-linux-gnueabihf/4.9/include/arm_neon.h **** }
2482:/usr/lib/gcc/arm-linux-gnueabihf/4.9/include/arm_neon.h **** 
2483:/usr/lib/gcc/arm-linux-gnueabihf/4.9/include/arm_neon.h **** __extension__ static __inline uint8x16_t __attribute__ ((__always_inline__))
2484:/usr/lib/gcc/arm-linux-gnueabihf/4.9/include/arm_neon.h **** vtstq_u8 (uint8x16_t __a, uint8x16_t __b)
2485:/usr/lib/gcc/arm-linux-gnueabihf/4.9/include/arm_neon.h **** {
2486:/usr/lib/gcc/arm-linux-gnueabihf/4.9/include/arm_neon.h ****   return (uint8x16_t)__builtin_neon_vtstv16qi ((int8x16_t) __a, (int8x16_t) __b, 0);
2487:/usr/lib/gcc/arm-linux-gnueabihf/4.9/include/arm_neon.h **** }
2488:/usr/lib/gcc/arm-linux-gnueabihf/4.9/include/arm_neon.h **** 
2489:/usr/lib/gcc/arm-linux-gnueabihf/4.9/include/arm_neon.h **** __extension__ static __inline uint16x8_t __attribute__ ((__always_inline__))
2490:/usr/lib/gcc/arm-linux-gnueabihf/4.9/include/arm_neon.h **** vtstq_u16 (uint16x8_t __a, uint16x8_t __b)
2491:/usr/lib/gcc/arm-linux-gnueabihf/4.9/include/arm_neon.h **** {
2492:/usr/lib/gcc/arm-linux-gnueabihf/4.9/include/arm_neon.h ****   return (uint16x8_t)__builtin_neon_vtstv8hi ((int16x8_t) __a, (int16x8_t) __b, 0);
2493:/usr/lib/gcc/arm-linux-gnueabihf/4.9/include/arm_neon.h **** }
2494:/usr/lib/gcc/arm-linux-gnueabihf/4.9/include/arm_neon.h **** 
2495:/usr/lib/gcc/arm-linux-gnueabihf/4.9/include/arm_neon.h **** __extension__ static __inline uint32x4_t __attribute__ ((__always_inline__))
2496:/usr/lib/gcc/arm-linux-gnueabihf/4.9/include/arm_neon.h **** vtstq_u32 (uint32x4_t __a, uint32x4_t __b)
2497:/usr/lib/gcc/arm-linux-gnueabihf/4.9/include/arm_neon.h **** {
2498:/usr/lib/gcc/arm-linux-gnueabihf/4.9/include/arm_neon.h ****   return (uint32x4_t)__builtin_neon_vtstv4si ((int32x4_t) __a, (int32x4_t) __b, 0);
2499:/usr/lib/gcc/arm-linux-gnueabihf/4.9/include/arm_neon.h **** }
2500:/usr/lib/gcc/arm-linux-gnueabihf/4.9/include/arm_neon.h **** 
2501:/usr/lib/gcc/arm-linux-gnueabihf/4.9/include/arm_neon.h **** __extension__ static __inline uint8x16_t __attribute__ ((__always_inline__))
2502:/usr/lib/gcc/arm-linux-gnueabihf/4.9/include/arm_neon.h **** vtstq_p8 (poly8x16_t __a, poly8x16_t __b)
2503:/usr/lib/gcc/arm-linux-gnueabihf/4.9/include/arm_neon.h **** {
2504:/usr/lib/gcc/arm-linux-gnueabihf/4.9/include/arm_neon.h ****   return (uint8x16_t)__builtin_neon_vtstv16qi ((int8x16_t) __a, (int8x16_t) __b, 2);
2505:/usr/lib/gcc/arm-linux-gnueabihf/4.9/include/arm_neon.h **** }
2506:/usr/lib/gcc/arm-linux-gnueabihf/4.9/include/arm_neon.h **** 
2507:/usr/lib/gcc/arm-linux-gnueabihf/4.9/include/arm_neon.h **** __extension__ static __inline int8x8_t __attribute__ ((__always_inline__))
2508:/usr/lib/gcc/arm-linux-gnueabihf/4.9/include/arm_neon.h **** vabd_s8 (int8x8_t __a, int8x8_t __b)
2509:/usr/lib/gcc/arm-linux-gnueabihf/4.9/include/arm_neon.h **** {
2510:/usr/lib/gcc/arm-linux-gnueabihf/4.9/include/arm_neon.h ****   return (int8x8_t)__builtin_neon_vabdv8qi (__a, __b, 1);
2511:/usr/lib/gcc/arm-linux-gnueabihf/4.9/include/arm_neon.h **** }
2512:/usr/lib/gcc/arm-linux-gnueabihf/4.9/include/arm_neon.h **** 
2513:/usr/lib/gcc/arm-linux-gnueabihf/4.9/include/arm_neon.h **** __extension__ static __inline int16x4_t __attribute__ ((__always_inline__))
2514:/usr/lib/gcc/arm-linux-gnueabihf/4.9/include/arm_neon.h **** vabd_s16 (int16x4_t __a, int16x4_t __b)
2515:/usr/lib/gcc/arm-linux-gnueabihf/4.9/include/arm_neon.h **** {
2516:/usr/lib/gcc/arm-linux-gnueabihf/4.9/include/arm_neon.h ****   return (int16x4_t)__builtin_neon_vabdv4hi (__a, __b, 1);
2517:/usr/lib/gcc/arm-linux-gnueabihf/4.9/include/arm_neon.h **** }
2518:/usr/lib/gcc/arm-linux-gnueabihf/4.9/include/arm_neon.h **** 
2519:/usr/lib/gcc/arm-linux-gnueabihf/4.9/include/arm_neon.h **** __extension__ static __inline int32x2_t __attribute__ ((__always_inline__))
2520:/usr/lib/gcc/arm-linux-gnueabihf/4.9/include/arm_neon.h **** vabd_s32 (int32x2_t __a, int32x2_t __b)
2521:/usr/lib/gcc/arm-linux-gnueabihf/4.9/include/arm_neon.h **** {
2522:/usr/lib/gcc/arm-linux-gnueabihf/4.9/include/arm_neon.h ****   return (int32x2_t)__builtin_neon_vabdv2si (__a, __b, 1);
2523:/usr/lib/gcc/arm-linux-gnueabihf/4.9/include/arm_neon.h **** }
2524:/usr/lib/gcc/arm-linux-gnueabihf/4.9/include/arm_neon.h **** 
2525:/usr/lib/gcc/arm-linux-gnueabihf/4.9/include/arm_neon.h **** __extension__ static __inline float32x2_t __attribute__ ((__always_inline__))
2526:/usr/lib/gcc/arm-linux-gnueabihf/4.9/include/arm_neon.h **** vabd_f32 (float32x2_t __a, float32x2_t __b)
2527:/usr/lib/gcc/arm-linux-gnueabihf/4.9/include/arm_neon.h **** {
2528:/usr/lib/gcc/arm-linux-gnueabihf/4.9/include/arm_neon.h ****   return (float32x2_t)__builtin_neon_vabdv2sf (__a, __b, 3);
2529:/usr/lib/gcc/arm-linux-gnueabihf/4.9/include/arm_neon.h **** }
2530:/usr/lib/gcc/arm-linux-gnueabihf/4.9/include/arm_neon.h **** 
2531:/usr/lib/gcc/arm-linux-gnueabihf/4.9/include/arm_neon.h **** __extension__ static __inline uint8x8_t __attribute__ ((__always_inline__))
2532:/usr/lib/gcc/arm-linux-gnueabihf/4.9/include/arm_neon.h **** vabd_u8 (uint8x8_t __a, uint8x8_t __b)
2533:/usr/lib/gcc/arm-linux-gnueabihf/4.9/include/arm_neon.h **** {
2534:/usr/lib/gcc/arm-linux-gnueabihf/4.9/include/arm_neon.h ****   return (uint8x8_t)__builtin_neon_vabdv8qi ((int8x8_t) __a, (int8x8_t) __b, 0);
2535:/usr/lib/gcc/arm-linux-gnueabihf/4.9/include/arm_neon.h **** }
2536:/usr/lib/gcc/arm-linux-gnueabihf/4.9/include/arm_neon.h **** 
2537:/usr/lib/gcc/arm-linux-gnueabihf/4.9/include/arm_neon.h **** __extension__ static __inline uint16x4_t __attribute__ ((__always_inline__))
2538:/usr/lib/gcc/arm-linux-gnueabihf/4.9/include/arm_neon.h **** vabd_u16 (uint16x4_t __a, uint16x4_t __b)
2539:/usr/lib/gcc/arm-linux-gnueabihf/4.9/include/arm_neon.h **** {
2540:/usr/lib/gcc/arm-linux-gnueabihf/4.9/include/arm_neon.h ****   return (uint16x4_t)__builtin_neon_vabdv4hi ((int16x4_t) __a, (int16x4_t) __b, 0);
2541:/usr/lib/gcc/arm-linux-gnueabihf/4.9/include/arm_neon.h **** }
2542:/usr/lib/gcc/arm-linux-gnueabihf/4.9/include/arm_neon.h **** 
2543:/usr/lib/gcc/arm-linux-gnueabihf/4.9/include/arm_neon.h **** __extension__ static __inline uint32x2_t __attribute__ ((__always_inline__))
2544:/usr/lib/gcc/arm-linux-gnueabihf/4.9/include/arm_neon.h **** vabd_u32 (uint32x2_t __a, uint32x2_t __b)
2545:/usr/lib/gcc/arm-linux-gnueabihf/4.9/include/arm_neon.h **** {
2546:/usr/lib/gcc/arm-linux-gnueabihf/4.9/include/arm_neon.h ****   return (uint32x2_t)__builtin_neon_vabdv2si ((int32x2_t) __a, (int32x2_t) __b, 0);
2547:/usr/lib/gcc/arm-linux-gnueabihf/4.9/include/arm_neon.h **** }
2548:/usr/lib/gcc/arm-linux-gnueabihf/4.9/include/arm_neon.h **** 
2549:/usr/lib/gcc/arm-linux-gnueabihf/4.9/include/arm_neon.h **** __extension__ static __inline int8x16_t __attribute__ ((__always_inline__))
2550:/usr/lib/gcc/arm-linux-gnueabihf/4.9/include/arm_neon.h **** vabdq_s8 (int8x16_t __a, int8x16_t __b)
2551:/usr/lib/gcc/arm-linux-gnueabihf/4.9/include/arm_neon.h **** {
2552:/usr/lib/gcc/arm-linux-gnueabihf/4.9/include/arm_neon.h ****   return (int8x16_t)__builtin_neon_vabdv16qi (__a, __b, 1);
2553:/usr/lib/gcc/arm-linux-gnueabihf/4.9/include/arm_neon.h **** }
2554:/usr/lib/gcc/arm-linux-gnueabihf/4.9/include/arm_neon.h **** 
